(lp0
(lp1
I0
aI133
aI610546
aI164470
aa(lp2
I0
aa(lp3
I0
aI150264
aI96
aI611006
aI88200
aI113854
aI400905
aI66841
aI14583
aa(lp4
I0
aI4130
aI157873
aI4476
aa(lp5
I0
aI386
aI25
aI1636
aI23
aI607356
aI163630
aI262273
aI168324
aI197388
aI78619
aI159
aI696933
aI233643
aI500
aI452939
aI154493
aI355257
aI87206
aI14105
aI410554
aI239176
aa(lp6
I0
aI159859
aI17456
aI69200
aI93494
aI17148
aI138005
aI33104
aI256446
aI1867998
aa(lp7
I0
aI119
aI608112
aI327739
aI531751
aI5340
aI64910
aI75
aI5511
aI14372
aa(lp8
I0
aI464
aI608074
aI153317
aI439
aI259363
aa(lp9
I0
aI70
aI455
aI145460
aI98
aI16328
aI17565
aI5163
aI265
aI600988
aI86201
aI2916
aI176148
aI155052
aI263239
aI237110
aI3970
aI9719
aI11067
aI233563
aI4341
aI1770
aa(lp10
I0
aI10056
aa(lp11
I0
aa(lp12
I0
aa(lp13
I0
aI147405
aI7811
aI426245
aI192807
aI682141
aI529140
aI4020
aI4371
aI5657
aI81379
aI570566
aa(lp14
I0
aa(lp15
I0
aa(lp16
I0
aa(lp17
I0
aI16933
aI64
aI608664
aI71645
aI277425
aI2221
aa(lp18
I0
aI17691
aI50
aI71
aI99115
aI495520
aI167136
aI1162
aI6047
aI104
aI2043
aI25931
aI49697
aI4921
aI12181
aI82
aa(lp19
I0
aI610277
aI89553
aa(lp20
I0
aa(lp21
I0
aI18310
aI188
aI607652
aI97869
aI19
aI3845
aI172943
aI158969
aI185610
aI69461
aa(lp22
I0
aa(lp23
I0
aI18195
aI16818
aI65795
aI14056
aI71739
aI2874
aa(lp24
I0
aa(lp25
I0
aI17799
aa(lp26
I0
aI25763
aI2510
aI602569
aa(lp27
I0
aI518
aI18403
aI71
aI607706
aI160365
aI73296
aI445304
aa(lp28
I0
aa(lp29
I0
aa(lp30
I0
aa(lp31
I0
aI140
aI57
aI35
aI606737
aa(lp32
I0
aI18246
aI243774
aa(lp33
I0
aI6356
aI608487
aI68930
aI197551
aI4512
aI1050
aI56728
aI9224
aI2697
aI816
aI5472
aI70039
aI168002
aI13408
aI6422
aI17659
aI1744
aI44658
aI5956
aa(lp34
I0
aI401
aI18167
aI16736
aI587922
aI588423
aI5081
aI1288949
aa(lp35
I0
aI983
aI16895
aI16817
aI59851
aI2842
aI166
aI598477
aI368064
aI1203644
aI355204
aI96718
aI70738
aI240175
aI97678
aI1968
aI18240
aI137218
aI94
aI602302
aI5343
aI83049
aI367227
aI177401
aI75369
aa(lp36
I0
aa(lp37
I0
aa(lp38
I0
aI23739
aI62057
aa(lp39
I0
aI14648
aI608071
aI260480
aI168540
aI271071
aI250432
aI267
aa(lp40
I0
aI17397
aI15460
aa(lp41
I0
aI2912
aI16330
aI68676
aI5009
aI80916
aI16563
aI95203
aI157343
aI191592
aI66023
aI1793537
aa(lp42
I0
aI17483
aI16359
aI605090
aI66285
aI253647
aI18804
aI1226
aI12133
aI219791
aI8706
aI5067
aa(lp43
I0
aa(lp44
I0
aI17898
aI661844
aI13984
aI261828
aI7658
aI6597
aI238576
aI17841
aI1321
aI509
aI71561
aI175400
aI6016
aI120
aa(lp45
I0
aa(lp46
I0
aI13701
aI82
aI143
aI336746
aI468
aI597099
aI611458
aI795
aI508647
aI12254
aI9270
aI185
aI409397
aI1818
aa(lp47
I0
aa(lp48
I0
aI17353
aI16873
aI65702
aI14333
aI74894
aI12724
aI66326
aI82462
aI2185108
aI55549
aa(lp49
I0
aI17905
aI16787
aI65833
aI15058
aI606309
aa(lp50
I0
aa(lp51
I0
aI18840
aI2699
aI595928
aI260182
aI1689
aI16447
aI5674
aa(lp52
I0
aI17173
aI16965
aI65790
aI2603
aI21179
aI69033
aI16438
aI138134
aI34664
aI255518
aI65806
aI1832695
aI55
aI54841
aa(lp53
I0
aI1062
aI608604
aI261255
aI7224
aI98
aI27
aI73
aI113
aI59
aI617831
aI421693
aI8892
aI1090293
aI270121
aI3913
aI118
aI694735
aI84225
aI148178
aI4960
aI366214
aa(lp54
I0
aI407
aa(lp55
I0
aa(lp56
I0
aI21134
aI65178
aI91960
aI112
aI616942
aI60863
aI20712
aa(lp57
I0
aI17478
aI104
aI661820
aI28207
aa(lp58
I0
aI15091
aI594726
aI172234
aI9963
aI1184
aa(lp59
I0
aa(lp60
I0
aa(lp61
I0
aa(lp62
I0
aI75406
aI602613
aI195555
aI161850
aI171819
aI268
aI174893
aI678314
aI360975
aI23552
aI244846
aI358001
aI63897
aI4536
aa(lp63
I0
aI17342
aI21481
aI63080
aI86871
aI445736
aI2133
aI1856828
aI97209
aa(lp64
I0
aI17488
aI17493
aI66288
aI12411
aI79627
aI15589
aI138203
aI1627848
aI615615
aa(lp65
I0
aI21735
aI75
aI603517
aI1992245
aI46120
aa(lp66
I0
aI9243
aI21056
aI1289
aa(lp67
I0
aI17263
aI267
aI154
aI589107
aI180808
aI69551
aa(lp68
I0
aI2297
aa(lp69
I0
aI16012
aI590760
aI278532
aI8668
aI17
aI3946
aI78779
aI251861
aI381
aI61605
aI11128
aI9923
aa(lp70
I0
aI15184
aI586946
aI272007
aa(lp71
I0
aI4335
aI239
aI15341
aI236670
aI551264
aI142335
aI755
aa(lp72
I0
aI20659
aI61915
aa(lp73
I0
aI1823
aa(lp74
I0
aI5320
aI13873
aI15526
aa(lp75
I0
aI17281
aI1745
aI1101
aI49
aI13231
aI1468
aI61560
aI73323
aI1265
aI5721
aI6292
aI93
aI70828
aI25400
aa(lp76
I0
aa(lp77
I0
aI17347
aI12776
aI604923
aI231030
aI448081
aI9816
aI73622
aI18
aI15131
aI56093
aI3708
aa(lp78
I0
aI17402
aI74844
aI9586
aI81008
aI737
aI14145
aI95130
aI156774
aI5240
aI234943
aI91864
aI32011
aI84549
aI143824
aI1546108
aa(lp79
I0
aI3275
aa(lp80
I0
aI5623
aI14391
aI112
aI84
aI605733
aI68556
aI294944
aI219006
aI1118
aI18457
aI1038
aI61938
aa(lp81
I0
aI3995
aa(lp82
I0
aI315
aI17716
aI67374
aI92880
aI17221
aI304
aI138686
aa(lp83
I0
aI25260
aI604773
aa(lp84
I0
aI89
aI72
aI43
aI881
aI607775
aI261125
aI164445
aI197796
aI139793
aI1291049
aa(lp85
I0
aI17207
aI306
aI103
aI4656
aI538
aI71557
aa(lp86
I0
aI15585
aI16734
aI57071
aI601889
aI177869
aI346196
aI95837
aa(lp87
I0
aI16919
aI205
aI606309
aI587758
aI105486
aI6009
aI486148
aI262918
aI7220
aI12590
aI54391
aI4336
aa(lp88
I0
aI9385
aI5973
aI1938
aa(lp89
I0
aI16127
aI3522
aI1528
aa(lp90
I0
aI17174
aI11722
aa(lp91
I0
aI17088
aI17467
aI65091
aI13623
aI79030
aI8780
aI64858
aI83485
aI2185254
aI55592
aa(lp92
I0
aI16975
aI16758
aI65856
aI494
aa(lp93
I0
aa(lp94
I0
aI18671
aI661821
aI29515
aI8409
aI585302
aI85286
aI20230
aa(lp95
I0
aa(lp96
I0
aI155
aI57
aI97
aI608195
aa(lp97
I0
aI307
aI138
aI608735
aI259840
aI516944
aI517605
aI1227
aI15491
aI86296
aI54375
aI9474
aa(lp98
I0
aI80216
aI9576
aI80096
aI10954
aI13858
aI138404
aI1627527
aI615622
aa(lp99
I0
aI565
aI141
aI347332
aI362149
aa(lp100
I0
aI1656
aI14678
aI606471
aI156334
aI432496
aI90578
aI7929
aI70854
aI4172
aa(lp101
I0
aI695
aI489
aI442237
aI611887
aI164778
aI71212
aa(lp102
I0
aI324
aI610786
aI255708
aI424688
aI11765
aI7447
aI3752
aI9547
aI7116
aI43522
aa(lp103
I0
aI1108
aI606128
aI258503
aI10687
aa(lp104
I0
aI15326
aI922
aI610
aI1228
aa(lp105
I0
aI312
aI2098
aI11109
aI153860
aI433081
aI1897860
aI156748
aa(lp106
I0
aI16646
aI66237
aI12436
aI13979
aI54
aI562263
aI196385
aI162040
aI198961
aI140432
aI1375454
aa(lp107
I0
aI14398
aI746
aI198
aI605918
aI600462
aa(lp108
I0
aI238
aa(lp109
I0
aI172507
aI437526
aI2773
aI256538
aI5513
aa(lp110
I0
aI15063
aI710
aI1014
aI64866
aI254449
aI2178915
aI141950
aa(lp111
I0
aI15688
aI314270
aI604381
aI616651
aI93032
aI158259
aI608799
aI246541
aa(lp112
I0
aa(lp113
I0
aI824
aI2205
aI63
aI606831
aI141
aI254610
aI163589
aI193724
aI159717
aI53
aI90
aI2253
aI685682
aI75335
aI356243
aI1913
aI13390
aI50518
aa(lp114
I0
aI14135
aI657573
aI27992
aI191090
aI159551
aI177630
aI85815
aI236537
aI949
aI4287
aa(lp115
I0
aa(lp116
I0
aa(lp117
I0
aI117
aI43
aI40
aI1140
aa(lp118
I0
aa(lp119
I0
aI518
aI534
aI6606
aa(lp120
I0
aa(lp121
I0
aa(lp122
I0
aI7461
aI630
aI173
aI2677
aI245
aI603645
aI1667
aI936
aI144038
aI93884
aI6348
aI4170
aI583
aI17323
aI43755
aI69
aa(lp123
I0
aI608627
aI1037940
aI279656
aI49689
aI181413
aI2896
aa(lp124
I0
aI7022
aI128
aI82
aI607032
aI78580
aI189526
aa(lp125
I0
aI79
aI1173
aI1596
aI4778
aI57730
aI4461
aI1803
aI3173
aI11495
aI2933
aI4244
aI2252
aI389
aI63743
aI12961
aa(lp126
I0
aI4809
aI14
aI66
aI41
aI51
aI181
aI606460
aI158655
aI432432
aa(lp127
I0
aI605368
aI153038
aI27998
aI484787
aI8033
aI237
aI20419
aI12153
aI695
aI50357
aI24958
aI61052
aI16839
aI79308
aI1886
aI4482
aI6083
aa(lp128
I0
aI589835
aI16394
aI14661
aI36
aI51
aI2897
aI42804
aI800
aI4205
aI6773
aI8720
aI7952
aI80
aI1287
aI17
aI89740
aI61965
aa(lp129
I0
aI310
aI6095
aI4472
aI776
aI65801
aI13972
aI77948
aI17142
aI58931
aI1379
aI20713
aI4485
aI66782
aI2315882
aa(lp130
I0
aI605548
aI608535
aI602
aI1439480
aa(lp131
I0
aI62
aI305
aa(lp132
I0
aa(lp133
I0
aI5681
aI13117
aI1113
aI602751
aI5241
aI239370
aI4777
aI1186
aI591912
aI498763
aa(lp134
I0
aa(lp135
I0
aa(lp136
I0
aa(lp137
I0
aa(lp138
I0
aI771
aI2321
aI608351
aI250512
aI351407
aI812
aI1439255
aa(lp139
I0
aI71252
aI9496
aI12017
aI191
aI3593
aI17
aI505051
aI437087
aI156
aI167406
aI672432
aI265349
aI2479
aI1155
aI11290
aI415
aI2806
aI444537
aI46873
aI7971
aI13008
aI14729
aI400881
aI88221
aI11055
aI15995
aI56765
aI26036
aI60312
aI15851
aI17502
aI55898
aI171628
aI35174
aI79411
aI182
aI53925
aI23121
aI14090
aI56802
aI76
aI1556
aI2219
aa(lp140
I0
aI2034
aI608627
aI161309
aI1022299
aI207519
aI54734
aI423442
aI19
aI102920
aI39
aI69876
aa(lp141
I0
aa(lp142
I0
aI188
aI322
aI84
aI181608
aI13
aI607567
aI269
aI401651
aI278487
aI11996
aI2695
aI50866
aI93
aI1862
aI4215
aI5036
aI221
aI1493
aI242292
aI9157
aI2481
aI1142
aI21392
aI47578
aI3500
aa(lp143
I0
aI1811
aI1855
aI608015
aI62073
aI1838
aI13607
aI48
aI658111
aI18041
aI478
aI18953
aI426582
aa(lp144
I0
aa(lp145
I0
aI423
aI157
aI816
aI208
aI1805
aI4448
aI5334
aI46967
aa(lp146
I0
aI605009
aI1364678
aI24847
aI2158
aI586065
aI78989
aI972
aI763
aI5736
aI16407
aI401983
aI79995
aI86023
aI4687
aa(lp147
I0
aI465
aI5007
aI426
aa(lp148
I0
aa(lp149
I0
aa(lp150
I0
aI4127
aI1071
aa(lp151
I0
aa(lp152
I0
aa(lp153
I0
aI507
aI442
aI1113
aI72631
aI1985
aI236112
aI10239
aI267
aa(lp154
I0
aI135
aI871
aI604164
aI84167
aI570
aI175572
aI155023
aI176555
aI102674
aI509866
aI2165
aI87087
aI290
aI81394
aI1385
aI52867
aI605968
aI125460
aI1315
aI204
aI330
aI114
aI341
aI301
aI67494
aI39
aI3237
aI84
aI43
aI148517
aa(lp155
I0
aI197
aI602408
aI684400
aa(lp156
I0
aI87
aI602956
aI174514
aI68512
aI1287762
aI505851
aa(lp157
I0
aI2060
aI186
aI319078
aa(lp158
I0
aI64852
aI14359
aI69
aI611557
aI334398
aI177327
aI6461
aI85
aI947811
aI83
aI398057
aI29801
aa(lp159
I0
aI604430
aI92439
aI756
aI976
aa(lp160
I0
aI74365
aI2004
aI614984
aI52310
aI524407
aa(lp161
I0
aa(lp162
I0
aI12945
aI615184
aI182719
aa(lp163
I0
aI53970
aI518018
aI194786
aI66781
aI2533
aI6194
aI772
aa(lp164
I0
aI54338
aI194545
aI94
aI53
aI615238
aI579865
aI443028
aI238
aa(lp165
I0
aa(lp166
I0
aI12877
aI912
aa(lp167
I0
aI330
aa(lp168
I0
aI10798
aa(lp169
I0
aI53129
aI11214
aa(lp170
I0
aa(lp171
I0
aI52469
aI977
aI18635
aI699
aI4266
aI1268
aI208
aI543
aI806
aI572625
aI254405
aI5419
aI2712
aI499
aI12633
aI237679
aa(lp172
I0
aI44254
aI3295
aI365309
aI590962
aI619064
aI872856
aI140474
aa(lp173
I0
aI9323
aI81097
aI16273
aI95127
aI157515
aI191602
aI67786
aI13986
aa(lp174
I0
aa(lp175
I0
aa(lp176
I0
aa(lp177
I0
aI3401
aI29104
aI8677
aI129
aI175
aI70
aI603137
aI599052
aI4907
aI1034
aa(lp178
I0
aa(lp179
I0
aa(lp180
I0
aI4336
aa(lp181
I0
aI772
aa(lp182
I0
aI4445
aI35850
aI67530
aI8357
aI94416
aI156993
aI236271
aI13139
aI80086
aI33142
aI54144
aI31113
aI142135
aI1477092
aI156677
aa(lp183
I0
aI5121
aI91
aI601956
aI16096
aI54
aI6339
aI183814
aI63385
aI882916
aI571917
aI345002
aa(lp184
I0
aI4605
aI11706
aI21626
aI49046
aI393
aI611080
aI86215
aI451146
aI220
aI7049
aI518675
aI54000
aI10156
aI37
aI6658
aa(lp185
I0
aI5971
aa(lp186
I0
aI1223
aI524751
aI334168
aa(lp187
I0
aI556
aI14360
aI16171
aI306
aI611500
aI512897
aI142388
aI119457
aI346002
aI249358
aI411511
aI252052
aa(lp188
I0
aI10814
aI10072
aI618441
aI943
aI58404
aI425245
aI8682
aa(lp189
I0
aI876
aa(lp190
I0
aI9873
aa(lp191
I0
aI6853
aI599254
aI1988
aI275911
aI1804
aI2508
aI62701
aI2217
aI169171
aI9283
aa(lp192
I0
aI1606
aI272
aI602193
aI195049
aI161891
aI3053
aI197607
aa(lp193
I0
aI5701
aI9128
aI81191
aI11259
aI10932
aI90534
aI157624
aI237896
aI90176
aI1737447
aI157385
aa(lp194
I0
aa(lp195
I0
aI4720
aI10127
aI79926
aI7841
aI73348
aI90
aI95
aI518417
aI513035
aI7754
aI6048
aI11685
aI141
aI12721
aI599900
aI78721
aI60895
aI6166
aa(lp196
I0
aa(lp197
I0
aa(lp198
I0
aI57
aa(lp199
I0
aI166808
aI352019
aI89663
aI9161
aa(lp200
I0
aI2074
aI602188
aI602746
aI35
aI103046
aI92298
aI77888
aI633
aI496664
aI610
aI12074
aI36
aI19502
aI65575
aI835
aI14406
aI264316
aI79658
aI68114
aI90547
aI879
aa(lp201
I0
aa(lp202
I0
aI207
aI228
aI602856
aI20
aI18774
aI72161
aI508740
aI3045
aI2443
aI516666
aI191229
aI8782
aI92899
aI92615
aI59380
aI261908
aI83105
aI4637
aI2866
aI10318
aI5004
aI1599
aI76967
aI319395
aI697
aI1296
aI581
aI4938
aI90753
aI76
aI359136
aI157731
aI80453
aI3010
aI36
aI166994
aI445319
aI10155
aI55634
aI3198
aa(lp203
I0
aa(lp204
I0
aI909
aI19
aI959
aI9570
aI79908
aI16146
aI95360
aI157083
aI191396
aI137475
aI1981352
aa(lp205
I0
aa(lp206
I0
aa(lp207
I0
aI9661
aI81215
aa(lp208
I0
aI1279
aI1635
aI1124
aI79
aI133
aI597516
aI13460
aI69189
aI441879
aI2190
aI55
aa(lp209
I0
aI136
aI598749
aI172692
aI347623
aI165586
aa(lp210
I0
aI12217
aI1947
aI9231
aI294
aI97
aI673940
aI586098
aI103007
aI24497
aI419131
aI64596
aI432442
aI81612
aa(lp211
I0
aa(lp212
I0
aI592882
aI5471
aI595887
aI100715
aI9205
aI495728
aa(lp213
I0
aa(lp214
I0
aI5214
aI58
aI682742
aI107801
aI160431
aI175497
aI102643
aI140214
aI357441
aa(lp215
I0
aI248
aI617787
aI164715
aI173853
aI262787
aI506647
aI141
aI586347
aI344940
aa(lp216
I0
aI2694
aI80
aI73
aI616774
aI426
aI337617
aI177066
aI1776
aI64696
aI496497
aI9765
aI2202
aI1014
aa(lp217
I0
aI80247
aI15573
aI162385
aa(lp218
I0
aI13118
aI20750
aI73214
aI1339
aI81017
aI32121
aI255215
aI142684
aI20817
aI181
aI170508
aI4463
aI256352
aI62802
aI775
aI506
aI316
aI2150
aI16
aI1172
aa(lp219
I0
aa(lp220
I0
aI77955
aI433123
aI165242
aI526142
aa(lp221
I0
aI156
aI343451
aI173
aI41
aI411415
aI2437
aI3723
aI833
aI779
aa(lp222
I0
aI10731
aI53354
aI212
aI19355
aI13876
aI138691
aI1926
aI33877
aI256060
aI89698
aI54744
aI32322
aI77891
aI38
aa(lp223
I0
aI683259
aI173932
aI531431
aI349
aI2812
aa(lp224
I0
aI79632
aI12200
aI64821
aI13614
aI609777
aI6636
aI921199
aI2927
aI260292
aI925
aa(lp225
I0
aa(lp226
I0
aI77414
aI210
aI804
aI417104
aI214
aI455072
aI148584
aI13515
aI275961
aI57411
aI1098
aI9733
aI15949
aI253862
aI3123
aI56831
aI401
aI3312
aI179
aa(lp227
I0
aI174281
aI334724
aI243448
aI1924
aI2626
aa(lp228
I0
aI152
aI530
aI40
aI159153
aI423021
aI195457
aI64142
aa(lp229
I0
aI12155
aI168
aI675425
aI619358
aI427915
aI776760
aI60721
aI9480
aa(lp230
I0
aa(lp231
I0
aI15681
aI92
aa(lp232
I0
aa(lp233
I0
aI3429
aI62468
aI19249
aI61217
aI22232
aI159156
aI193480
aI65915
aI590036
aI108162
aI167533
aI4901
aI235114
aI8688
aa(lp234
I0
aI431
aI1142
aI671228
aI173132
aI263690
aI1806
aI101256
aI139885
aI358034
aI255403
aI340183
aI289438
aI183
aI1081875
aa(lp235
I0
aa(lp236
I0
aI318
aI69547
aI422
aI2727
aI51698
aI18700
aI619721
aI16573
aI154810
aI175529
aI102590
aI140254
aI358189
aI92977
aI500173
aI82297
aI84220
aa(lp237
I0
aI614725
aI56484
aI528667
aa(lp238
I0
aI677381
aI19134
aI257
aI241679
aI779906
aI255649
aI18512
aI4047
aI85448
aI4281
aa(lp239
I0
aI117
aI311
aI681005
aI160930
aI441572
aI2574
aI69
aI191
aI11628
aI60033
aI11916
aI1429
aI45
aI2262
aI2360
aI3146
aI61171
aa(lp240
I0
aI205
aI61
aI675152
aI416565
aI269521
aI2242
aI22998
aI304629
aI208
aI3630
aI3309
aI6391
aI21670
aI6657
aI40022
aI7418
aI361
aa(lp241
I0
aI5910
aa(lp242
I0
aI58511
aI115
aI624874
aI10357
aI680257
aI922508
aI116644
aI234592
aI16457
aI252513
aa(lp243
I0
aa(lp244
I0
aI239
aI1821
aI249
aI600207
aI180306
aI137
aI221
aI785
aI742808
aI438792
aI78463
aI264847
aa(lp245
I0
aI596591
aI233872
aI427437
aa(lp246
I0
aI67640
aI8276
aI605671
aI206
aI125
aI602406
aI184582
aI227560
aI274863
aa(lp247
I0
aI2666
aI66599
aI8327
aI64210
aI13362
aI105129
aI306612
aI90890
aI1970490
aI10810
aa(lp248
I0
aI50153
aI19816
aI11311
aI512
aI582848
aI115175
aa(lp249
I0
aI531727
aa(lp250
I0
aa(lp251
I0
aa(lp252
I0
aI98
aI610636
aa(lp253
I0
aI2252
aI16260
aI11028
aI90625
aI66631
aI72875
aI186674
aI14804
aI72822
aI66594
aI1742775
aI243794
aa(lp254
I0
aa(lp255
I0
aI1103
aI21263
aI9493
aI608294
aI86218
aI158284
aI175216
aI101967
aI837190
aI459298
aI48695
aI94557
aa(lp256
I0
aI1594
aI21252
aI11065
aI60933
aI14534
aI10
aI542
aI88
aI723
aI50
aI607577
aI159372
aI199141
aI78382
aI145053
aI345053
aI261829
aa(lp257
I0
aa(lp258
I0
aI1456
aI118714
aI65465
aI28716
aI58479
aI245417
aI190374
aI606897
aI348429
aI261929
aI331902
aI357089
aI411018
aI343903
aa(lp259
I0
aI89
aI620141
aI96887
aI153680
aI177624
aI100982
aI57454
aI3466
aI500691
aa(lp260
I0
aI21059
aI11345
aI91095
aI53540
aI26143
aI668645
aI185638
aI102204
aI140583
aI358281
aI194
aI72682
aI520945
aI9785
aI12285
aI348342
aI226536
aa(lp261
I0
aa(lp262
I0
aI22712
aI614889
aI146394
aI436968
aI96
aI304
aI14719
aI259
aI1922
aI253503
aI153203
aI1414
aI689
aI82589
aI104047
aI513208
aI87988
aI25137
aI52403
aI13945
aI13786
aI678491
aI20132
aI59486
aI168141
aI1605
aI107946
aI1529
aI138932
aI19360
aI18201
aI48353
aI37107
aI70215
aI974
aI161361
aI75739
aI7110
aI29967
aI51223
aI624780
aa(lp263
I0
aa(lp264
I0
aI317
aI1578
aI428424
aI212
aI353133
aI448871
aI59968
aI23547
aa(lp265
I0
aI5501
aI16137
aI11022
aI91034
aI157364
aI237785
aI90234
aI33477
aI54185
aI31229
aI1634119
aI314497
aa(lp266
I0
aI431930
aI453727
aI255724
aI98149
aI232649
aI293802
aI29
aI23
aI1197211
aa(lp267
I0
aI16124
aI10954
aI89647
aI143
aI573205
aI445938
aa(lp268
I0
aI5525
aI624874
aI10464
aI158911
aI31
aI842492
aI207686
aI409205
aI354008
aI502772
aI26
aI92236
aI243792
aa(lp269
I0
aI1786
aI1247
aI173
aI646
aI625569
aa(lp270
I0
aI154
aI608368
aI534914
aI33
aI182857
aI1627
aI52472
aI2665
aa(lp271
I0
aI494
aI563
aI2206
aI420
aI219
aI27702
aI52
aI124
aI220
aI1547
aI933
aI604641
aI79584
aI429016
aI145166
aa(lp272
I0
aI979
aI8257
aI319
aI6778
aI8862
aI56303
aa(lp273
I0
aI1760
aa(lp274
I0
aI1433
aI620003
aI6287
aI237515
aI185779
aI241
aI761271
aI196452
aI2148
aI6387
aI980
aI239900
aI9963
aI14168
aI42366
aI2401
aI99
aI14024
aI505466
aI247
aI7752
aI77224
aa(lp275
I0
aI50
aI432
aa(lp276
I0
aI626526
aI690581
aI339202
aI432424
aI582039
aa(lp277
I0
aI431430
aI153888
aI9223
aI6061
aI28
aI11203
aI1363
aI4713
aa(lp278
I0
aI15675
aI10955
aI90974
aI157584
aI237554
aI90221
aI12222
aI104379
aI1621375
aI16101
aI313400
aa(lp279
I0
aI251
aI2204
aa(lp280
I0
aI122
aI614072
aI250055
aI617371
aI360867
aI682405
aI4191
aI138702
aa(lp281
I0
aI9902
aI3274
aI2990
aI101
aI315
aI624476
aa(lp282
I0
aI2041
aa(lp283
I0
aI93
aI116
aI623148
aI56516
aI4892
aI1060
aI107955
aI268408
aI80147
aI4407
aI88708
aI63937
aI3389
aI349729
aI261891
aI333524
aI355626
aI63680
aa(lp284
I0
aa(lp285
I0
aI740
aI10396
aI10861
aI91392
aI127
aa(lp286
I0
aa(lp287
I0
aa(lp288
I0
aI334
aI1640
aI13641
aI64970
aI12840
aI71407
aI32833
aI256482
aI72879
aI397
aI588401
aI98019
aI170793
aI508658
aI12463
aI2547
aI39
aI3259
aI83544
aI54
aI683
aI899
aa(lp289
I0
aa(lp290
I0
aa(lp291
I0
aa(lp292
I0
aa(lp293
I0
aI431
aa(lp294
I0
aa(lp295
I0
aa(lp296
I0
aa(lp297
I0
aa(lp298
I0
aa(lp299
I0
aI658
aI5360
aa(lp300
I0
aa(lp301
I0
aa(lp302
I0
aI332
aa(lp303
I0
aI351
aa(lp304
I0
aI100
aI620125
aa(lp305
I0
aI95981
aI418811
aI270369
aI1194
aI3522
aI3200
aI36
aI243
aa(lp306
I0
aa(lp307
I0
aa(lp308
I0
aa(lp309
I0
aI512107
aI259208
aI7145
aI6899
aI5780
aI6600
aI259062
aI592565
aI12717
aI1211
aa(lp310
I0
aa(lp311
I0
aI613
aI614442
aI94810
aI449
aI157724
aI177001
aI1852
aI350264
aI827791
aI296384
aI1517
aa(lp312
I0
aI501164
aI597342
aa(lp313
I0
aa(lp314
I0
aI5877
aI158
aI71
aI423
aI607688
aI149729
aI82347
aI262719
aI265757
aI174
aI2449
aI2794
aI62
aI21
aI13184
aI2558
aI222829
aI8149
aI7492
aI6267
aI80725
aa(lp315
I0
aI664
aI11618
aI61456
aI8950
aI221
aI612566
aI162859
aI3913
aI413756
aI516266
aI8518
aI1905
aI12310
aI9878
aI285
aI2386
aI5026
aI143
aI1110
aI89
aI61883
aI3143
aI19
aI21080
aI173
aI480851
aI12354
aI10780
aI76233
aI52
aI78722
aI2270
aI1117245
aI7481
aI11506
aI707708
aa(lp316
I0
aI230
aI11243
aI60640
aI83368
aI617904
aI606116
aI92343
aI180525
aI673784
aI329581
aa(lp317
I0
aI319
aI1800
aI62
aI612676
aI44
aI154283
aI388
aI427503
aI4040
aI110
aI498001
aI7884
aI2366
aI5917
aI1462
aI708
aI1979
aI269
aI6890
aI4109
aI6494
aI54914
aI96109
aI7242
aI1214
aa(lp318
I0
aI2018
aI8793
aI117
aI577066
aI1736814
aI329599
aa(lp319
I0
aI608881
aI239493
aI765544
aI120582
aI994
aI137683
aa(lp320
I0
aI517
aI399
aI612160
aI231863
aI10799
aI196307
aI78956
aI88852
aI237592
aI285975
aI908328
aa(lp321
I0
aI82
aI425266
aI2356
aI868833
aa(lp322
I0
aI5002
aI137
aI487882
aI184318
aa(lp323
I0
aI4437
aI56
aa(lp324
I0
aI685
aI61496
aI18545
aI91041
aI256450
aI20
aI58595
aI90052
aI12127
aI8056
aI606057
aI93428
aI336198
aI258462
aI330970
aI347239
aI11390
aI410949
aI257300
aa(lp325
I0
aI658
aI388877
aI219239
aI157867
aI101
aI276
aI72
aI98
aI842884
aI2992
aI107650
aI1703638
aa(lp326
I0
aI4700
aI649
aI704
aI142
aI606784
aI598268
aI71053
aI519837
aa(lp327
I0
aI1858
aa(lp328
I0
aI1364
aI60501
aI1266
aI1520
aI22975
aI39844
aI48011
aI225816
aI22998
aI14119
aI50512
aI29214
aI4383
aI1510
aI46932
aI2072937
aa(lp329
I0
aI92
aI72
aI299
aa(lp330
I0
aI10
aI45
aI37
aI160
aI500
aI401
aI129
aI425224
aI419071
aI198970
aI235908
aI503759
aa(lp331
I0
aI744
aI153389
aI453104
aI45583
aI4273
aI2753
aI3244
aI1976
aI18344
aI58718
aI8710
aa(lp332
I0
aI210
aI89
aI405457
aI169553
aI516526
aI7303
aI3624
aI74830
aI7223
aI3259
aa(lp333
I0
aI8
aI82
aI2317
aI188
aI2677
aI48774
aI5890
aI583
aI223
aI620166
aa(lp334
I0
aI231
aI188
aI569573
aI517285
aa(lp335
I0
aI2024
aI42
aI264
aI831
aI603005
aI154664
aI273926
aI240464
aI441695
aa(lp336
I0
aI21
aI57060
aI74
aI125
aI515455
aI430737
aI34
aI1085
aI7004
aI6130
aI17925
aI836
aI45437
aI3206
aI10745
aI8683
aI242
aI9489
aI6030
aI76035
aI60688
aI84
aI114
aa(lp337
I0
aI750
aI144798
aI29361
aI305720
aa(lp338
I0
aI344
aI1880
aI63827
aI5681
aI648
aI65
aI328260
aI71
aa(lp339
I0
aI601865
aI154504
aI274041
aa(lp340
I0
aa(lp341
I0
aI47091
aI4147
aI1348
aI931
aI635
aI621175
aI74888
aa(lp342
I0
aa(lp343
I0
aI4751
aI14179
aI307
aI497557
aI100419
aI142
aI410222
aa(lp344
I0
aa(lp345
I0
aI626533
aI525619
aI181544
aa(lp346
I0
aa(lp347
I0
aI8798
aI7308
aI13049
aI598655
aI604951
aI588596
aI21261
aI429941
aI314432
aa(lp348
I0
aI8430
aI20458
aa(lp349
I0
aI15319
aa(lp350
I0
aa(lp351
I0
aa(lp352
I0
aa(lp353
I0
aa(lp354
I0
aI12795
aa(lp355
I0
aI14918
aI1889
aa(lp356
I0
aI14682
aI1391
aI96774
aI1282
aI1401
aI105
aI366
aI673954
aI196728
aI79314
aI63129
aI113940
aI347150
aI86550
aI332746
aI497600
aI10478
aI3137
aI2384
aI4152
aI340536
aI2198
aI59149
aI2450
aI9010
aI879
aI678
aI800
aI10779
aI89974
aI172801
aI158435
aI1670
aI109885
aI53189
aI23850
aI12470
aI17
aI235
aI63700
aI7676
aI75233
aI785
aI2886
aI52
aI86
aa(lp357
I0
aI14900
aI72
aI506595
aI521346
aI6106
aI196
aI3063
aI26
aI10146
aI88637
aI166506
aI233489
aa(lp358
I0
aa(lp359
I0
aa(lp360
I0
aa(lp361
I0
aI21133
aI13319
aI141
aI481849
aI441531
aI5211
aa(lp362
I0
aa(lp363
I0
aI166
aI113
aI360377
aI434898
aI235705
aI519369
aI289409
aI2514
aI607
aI70777
aI235866
aa(lp364
I0
aI38
aI628604
aI1299999
aa(lp365
I0
aa(lp366
I0
aI101
aa(lp367
I0
aI16805
aI1472
aI572
aI604169
aI318453
aI261019
aa(lp368
I0
aI619664
aI160073
aa(lp369
I0
aI481
aI18428
aI6055
aI63616
aI10613
aI8099
aI251779
aI61860
aI3318
aI365960
aI235943
aI102634
aI98850
aI668702
aI258124
aI3539
aI2359
aI27687
aI65795
aI8145
aI459
aI12012
aI481151
aI93997
aI10721
aI55
aI389
aI2105
aI69917
aI23849
aI90318
aI57177
aI2770
aI12503
aI1083
aI18624
aI1758
aI59319
aI164625
aI5448
aI71743
aI36481
aI140
aI1750
aI3456
aI2139
aI48
aI10
aI45567
aI88408
aI6647
aI3889
aI9552
aa(lp370
I0
aI108
aI608334
aI606304
aI339361
aI965584
aI39
aI134801
aa(lp371
I0
aa(lp372
I0
aa(lp373
I0
aI70091
aI2915
aI7013
aI1386
aI588287
aI598802
aI9898
aI370135
aI332047
aI340175
aI609296
aI106742
aI47523
aI278424
aa(lp374
I0
aa(lp375
I0
aI291
aa(lp376
I0
aI68574
aI2516390
aI63008
aa(lp377
I0
aI646
aI648
aI331867
aI259945
aI96526
aa(lp378
I0
aI612669
aI73244
aI1694
aI232359
aI11276
aI5050
aI171147
aI180
aI1798
aa(lp379
I0
aa(lp380
I0
aI1280
aa(lp381
I0
aI10607
aI1332
aI2658
aI603044
aI249
aI288
aI407
aI996
aI577747
aI446897
aI41
aI84103
aI496346
aI151
aI81966
aI542059
aI168342
aI4643
aI330189
aI267000
aI177103
aI236642
aI34062
aI572738
aI5310
aI12600
aI19050
aI65297
aa(lp382
I0
aI153
aI3359
aI484348
aI189669
aI2377
aa(lp383
I0
aa(lp384
I0
aI1033
aa(lp385
I0
aI63482
aI596914
aI527801
aI442667
aa(lp386
I0
aI6559
aa(lp387
I0
aa(lp388
I0
aI4624
aI56
aI603935
aI479584
aI209386
aI254427
aI6655
aI241
aa(lp389
I0
aI297
aI606836
aI137676
aI186533
aI2970
aI692284
aI96986
aI59
aI2448
aI404690
aI291461
aa(lp390
I0
aI7504
aa(lp391
I0
aa(lp392
I0
aI116
aa(lp393
I0
aI181
aI604060
aI926347
aI124
aI437774
aI533856
aI139
aI593641
aI617840
aI568525
aa(lp394
I0
aI50860
aI602688
aI106022
aI935
aI177239
aI3880
aI144509
aI232
aI118775
aI5925
aI419609
aI10893
aI330461
aI433865
aa(lp395
I0
aI25746
aI233668
aI874
aI2447
aI22000
aI62775
aI85411
aI31829
aI84668
aI90237
aI55432
aI1489504
aI400610
aa(lp396
I0
aI55
aI122
aI602328
aI141126
aI186751
aI101415
aI687456
aI28
aI769570
aI16611
aI70322
aI60205
aa(lp397
I0
aI2585
aI63587
aI12778
aI600693
aI430913
aI428576
aa(lp398
I0
aI1710158
aI474250
aI400557
aa(lp399
I0
aI2189
aI63610
aI73212
aI659
aI206471
aI79725
aI59446
aI33236
aI54079
aI31219
aI1851194
aI120778
aI62835
aa(lp400
I0
aa(lp401
I0
aI617029
aI954332
aI68208
aI191194
aI9678
aI221
aI7996
aI158
aI502908
aI101324
aI256767
aI309538
aI261233
aI1394
aI8120
aa(lp402
I0
aI25355
aI6526
aI58304
aI19
aI50
aI1138
aI619628
aI257769
aI340109
aI1197
aI166072
aa(lp403
I0
aI31528
aI669653
aa(lp404
I0
aI20311
aI606253
aI74210
aa(lp405
I0
aa(lp406
I0
aI13332
aI4917
aI2427
aI79703
aI1803
aa(lp407
I0
aI20061
aI264330
aI63459
aI20139
aI67889
aI117952
aI1026
aI1637416
aI400308
aa(lp408
I0
aI1279
aa(lp409
I0
aa(lp410
I0
aI8938
aI29459
aI66708
aI603968
aI175451
aI102759
aI2057
aI70520
aI93201
aI337349
aI258240
aI414865
aI290463
aI75334
aI232187
aa(lp411
I0
aI30720
aI257639
aI98
aI71019
aI11371
aI59608
aI14282
aI595977
aI19302
aI585474
aI428661
aI291383
aI81946
aI72458
aI522667
aI1951
aI29
aI56937
aa(lp412
I0
aI70960
aI2809
aI518285
aI448187
aI3218
aI58040
aI15011
aa(lp413
I0
aI596732
aI9528
aa(lp414
I0
aa(lp415
I0
aa(lp416
I0
aI40
aI188
aI145
aI873
aI30
aI249911
aI27608
aa(lp417
I0
aI604061
aI945419
aI349020
aI521801
aI74
aI589705
aI360570
aI334288
aa(lp418
I0
aI422
aI16457
aI1104173
aI517463
aa(lp419
I0
aI1471
aI13
aI6665
aI4725
aa(lp420
I0
aI7345
aI65341
aI653
aI341
aI613120
aa(lp421
I0
aI7794
aI251553
aI63405
aI31565
aI4988
aa(lp422
I0
aI493
aI427791
aI520654
aI6918
aI24482
aI54777
aI23049
aI62895
aI8162
aI238
aI1132686
aI245652
aI781821
aI155343
aa(lp423
I0
aI271
aI601394
aI945659
aI76867
aI267207
aI7689
aI159
aI148208
aI33953
aI1823
aI702
aI229454
aI2358
aa(lp424
I0
aI122
aI597428
aI430060
aI94589
aI355798
aI255810
aI415087
aI285853
aI81404
aI151420
aa(lp425
I0
aI39
aI6410
aI64
aI6670
aI529916
aI422467
aI499302
aI1069
aI316
aI2198
aI84
aa(lp426
I0
aI66748
aI206414
aI71236
aI15396
aI78826
aI90314
aI91349
aI54792
aI1490960
aI486334
aa(lp427
I0
aI490
aI814
aI23687
aI80
aI51073
aa(lp428
I0
aI10434
aI338599
aI158741
aI518546
aI507
aI15102
aI12651
aI869
aI64905
aI3564
aI4102
aI247
aa(lp429
I0
aI1668
aa(lp430
I0
aI251166
aI438024
aI3327
aI765732
aI207236
aI747760
aa(lp431
I0
aI17636
aI51979
aa(lp432
I0
aI491490
aI113367
aI240767
aI95950
aI5056
aI800
aI2998
aa(lp433
I0
aI9453
aI13908
aI49182
aa(lp434
I0
aI238
aI101
aI504249
aI528579
aI922
aI16026
aI58194
aI7039
aa(lp435
I0
aI234971
aI453971
aI754504
aI452696
aI429561
aI107338
aI416294
aI60386
aa(lp436
I0
aI12699
aI2807
aI427
aI5340
aI668099
aI196201
aI652704
aI265371
aI13350
aI72231
aI166611
aI4275
aa(lp437
I0
aI11411
aI600571
aI268195
aI81433
aI144771
aI366314
aI589769
aI79281
aa(lp438
I0
aI707
aI2932
aI336242
aI39
aI352090
aa(lp439
I0
aI2655
aI5616
aI256439
aI58689
aI24592
aa(lp440
I0
aI6039
aI255445
aa(lp441
I0
aI3527
aI871
aI11
aI1375
aI416
aI6783
aI669043
aa(lp442
I0
aI801
aI1977
aI72732
aI6501
aI172517
aI17143
aI69922
aI72856
aI33204
aI54140
aI31053
aI1619183
aI502241
aa(lp443
I0
aI587838
aI596
aI1665439
aI40485
aI561433
aI7287
aI496695
aI157038
aI3926
aI1567
aI1585
aI1183
aI2523
aI3339
aI2052
aI826
aI85343
aI4987
aa(lp444
I0
aI59
aI129
aI587619
aI5416
aI2160
aI251462
aI257908
aI78
aa(lp445
I0
aI211
aI604320
aI1443177
aI296473
aI151622
aI155498
aa(lp446
I0
aI6392
aI883
aI671611
aI258198
aI9158
aI511342
aI765
aI11305
aI514
aI2095
aI54627
aI103365
aI179096
aI16345
aI61873
aI172034
aI1938
aI774
aI6377
aa(lp447
I0
aI1481
aI673231
aI345075
aI518260
aI8081
aI253
aI587
aI631
aI4659
aa(lp448
I0
aa(lp449
I0
aI141
aI353
aI673875
aI25
aI1218
aa(lp450
I0
aI74413
aI171566
aa(lp451
I0
aa(lp452
I0
aI6398
aI305370
aa(lp453
I0
aI52046
aa(lp454
I0
aI156
aI389
aa(lp455
I0
aI50376
aa(lp456
I0
aI235405
aI2826
aI335527
aI434759
aI4155
aa(lp457
I0
aa(lp458
I0
aa(lp459
I0
aI455
aI668655
aI353843
aI428947
aI10020
aI6631
aI44230
aI237
aI347
aI5731
aI16213
aI10742
aI38
aI853
aI55618
aI97315
aI428903
aI6765
aI5993
aa(lp460
I0
aI869
aI6088
aI428984
aI345730
aI174773
aI11858
aI1476
aI11433
aI55336
aI1896
aa(lp461
I0
aa(lp462
I0
aI254917
aI35622
aI56879
aI680
aI1077
aI89171
aI25910
aI53547
aI611020
aI29693
aI221932
aI4390
aI268067
aI15945
aI1875
aI45810
aa(lp463
I0
aI175036
aI448679
aa(lp464
I0
aI3553
aI1182
aI181291
aa(lp465
I0
aI3898
aI612412
aI164010
aI102120
aI496176
aI2214
aa(lp466
I0
aI2977
aI1128
aa(lp467
I0
aI9484
aI610763
aI260693
aI98449
aI1089535
aI604921
aa(lp468
I0
aI9056
aI4963
aI125
aI424602
aI604997
aI3797
aI335099
aI195750
aI5139
aI69300
aI1276
aI21290
aI56695
aI31546
aI59441
aI247
aI178705
aI6613
aI69597
aI525
aI16995
aI12913
aI139787
aI20042
aI327710
aI5826
aI3153
aI81429
aI3368
aI4317
aI2987
aa(lp469
I0
aI8106
aI65
aI612499
aI260354
aI74607
aI141
aI414
aI601764
aI169677
aI340818
aa(lp470
I0
aa(lp471
I0
aI614377
aI1482
aI1447346
aI367901
aI98
aI860179
aI7195
aI11206
aI138293
aI90565
aa(lp472
I0
aI1449
aI4610
aI178695
aa(lp473
I0
aI8985
aI1161
aI150937
aa(lp474
I0
aI3084
aI4009
aa(lp475
I0
aa(lp476
I0
aa(lp477
I0
aI1525
aa(lp478
I0
aI2990
aa(lp479
I0
aI60
aI288520
aI404
aI164733
aI67221
aI11733
aI242044
aI77106
aa(lp480
I0
aI2657
aa(lp481
I0
aI605749
aI512293
aI536444
aI10595
aI62
aI104
aI522
aI50281
aI4598
aI4913
aI18
aI6209
aI493
aa(lp482
I0
aI172221
aI16031
aI1830
aa(lp483
I0
aI6328
aI170382
aI16403
aI53542
aa(lp484
I0
aI980
aI5312
aI512886
aI2143542
aa(lp485
I0
aI962
aa(lp486
I0
aI170944
aI7602
aI599
aI326652
aI412402
aI27893
aI4849
aI362
aI8423
aI8417
aI50936
aI1767
aa(lp487
I0
aI170241
aI4134
aI4189
aI45
aa(lp488
I0
aI597551
aI251194
aI251680
aI3185
aI1349
aa(lp489
I0
aI148991
aI86069
aI5132
aI599013
aI193200
aI83699
aI509020
aa(lp490
I0
aI168773
aI13156
aI70848
aI1201
aI75
aI588566
aI21880
aI776843
aI1268691
aa(lp491
I0
aa(lp492
I0
aI602378
aI436
aI189169
aI226322
aI3306
aI4254
aI647
aa(lp493
I0
aa(lp494
I0
aI44
aI149397
aI171
aI455253
aI186520
aI583760
aI71047
aI274736
aa(lp495
I0
aI13524
aI444810
aI262705
aI144869
aI214
aa(lp496
I0
aa(lp497
I0
aI455019
aI156555
aI276667
aa(lp498
I0
aa(lp499
I0
aI18686
aI15483
aI1128
aI115
aI423285
aI405228
aI196939
aI419968
aI17066
aa(lp500
I0
aI2195
aI95
aI4700
aI35
aI258614
aI12048
aI6761
aI58241
aI1736
aI545
aI8293
aI10823
aI11811
aI402
aa(lp501
I0
aa(lp502
I0
aI32970
aI373
aI336
aa(lp503
I0
aI23543
aI14417
aI581693
aI105302
aI24
aI2610
aI210123
aI48632
aI597308
aI325444
aI279261
aI343020
aI14335
aI71206
aI12210
aI47431
aa(lp504
I0
aI567
aI3304
aI237
aI450123
aI165352
aI593502
aI341808
aI6157
aI18930
aI122
aI230932
aa(lp505
I0
aI12325
aa(lp506
I0
aa(lp507
I0
aI24529
aI8536
aI72446
aI67846
aI66
aI88
aI604101
aI33177
aI234798
aI290493
aI328877
aI441615
aI160606
aI416562
aI26310
aI1553
aI137698
aa(lp508
I0
aI341
aI36618
aI137841
aI2701
aI9043
aI24027
aI84418
aI1314
aI336
aI139125
aI208554
aI133500
aa(lp509
I0
aI454997
aI255656
aI98224
aI151202
aI21168
aI339308
aI941
aI499499
aI20864
aI263132
aI58
aI156414
aI5881
aI408699
aa(lp510
I0
aI23987
aa(lp511
I0
aI109188
aI346424
aI407
aI420219
aI440000
aI2256
aa(lp512
I0
aa(lp513
I0
aa(lp514
I0
aI17918
aI14189
aa(lp515
I0
aI19232
aI9434
aI251
aI591106
aI2643
aI16400
aI115
aI229892
aI511065
aI1077
aI5854
aI1656
aI407
aI82
aI630
aI180
aI4490
aI12415
aa(lp516
I0
aa(lp517
I0
aI37049
aI68185
aI68204
aI29813
aI3989
aI493935
aI247140
aI11280
aI21792
aI229126
aI7584
aa(lp518
I0
aI12352
aI17725
aI72986
aI21263
aI771
aI577864
aI94232
aI98518
aI337332
aI4612
aI60
aI254505
aI167025
aI2982
aI273643
aI173011
aI91822
aI71107
aa(lp519
I0
aI21438
aI104
aI435018
aI241126
aa(lp520
I0
aI105331
aI65706
aI15933
aI7590
aI422349
aI700623
aI60922
aI2116
aI27
aI17527
aI5141
aI47
aI56471
aI5185
aa(lp521
I0
aI26836
aI1754
aI43
aI125
aI427266
aI1063
aI152523
aI269086
aI3835
aI7802
aI529
aI62936
aI2622
aI7815
aI1103
aI856
aI947
aI33
aI8678
aI245426
aI3145
aa(lp522
I0
aI2937
aI584
aI347980
aI271338
aI153055
aI1813
aa(lp523
I0
aI23725
aI1721
aI1865
aa(lp524
I0
aI864
aI115816
aI230848
aI519085
aI9577
aI2012
aI1096
aI541
aI452
aI645
aa(lp525
I0
aI21883
aa(lp526
I0
aI11628
aI21183
aI62775
aI81787
aI812
aI523
aa(lp527
I0
aI22120
aI592435
aa(lp528
I0
aI18371
aI4250
aI13030
aI69872
aI115
aI20848
aI941
aI590082
aI4311
aI91407
aI178382
aI327377
aI346491
aI517885
aI410395
aI169941
aa(lp529
I0
aI937
aI104
aI1237642
aI59230
aI11115
aI92971
aI530849
aI658270
aa(lp530
I0
aI21484
aI10829
aa(lp531
I0
aI12337
aI92
aI445381
aI754873
aI258884
aa(lp532
I0
aI1590779
aI244643
aI91225
aI659793
aa(lp533
I0
aI6687
aI446287
aI178827
aI86898
aI144672
aI452608
aI347115
aa(lp534
I0
aa(lp535
I0
aa(lp536
I0
aI22607
aI431273
aa(lp537
I0
aI124
aI450835
aI166113
aI106851
aI79479
aI668117
aI423778
aI288463
aI440674
aI47838
aa(lp538
I0
aI625
aI3690
aI127
aI353
aI446231
aI263460
aI66971
aI875053
aI182268
aI98
aI575848
aI83467
aI23
aI86932
aI3448
aa(lp539
I0
aI25058
aI72516
aI22400
aI54434
aI31155
aI83383
aI66863
aI75065
aI1605
aI207260
aI1286080
aI659215
aa(lp540
I0
aI15877
aI435182
aa(lp541
I0
aa(lp542
I0
aa(lp543
I0
aI7792
aI931
aI443010
aI243998
aI262621
aI535
aI4070
aI242069
aI12526
aI14760
aI54754
aa(lp544
I0
aI1454
aI195
aI448003
aI181363
aI331719
aI414348
aI1586
aI5696
aI3879
aI147
aI75
aI14
aI456905
aI74947
aI60059
aI26877
aI5010
aa(lp545
I0
aa(lp546
I0
aa(lp547
I0
aI4126
aI445964
aI160129
aI266234
aI89
aI3071
aI14314
aI18
aI70352
aI1735
aa(lp548
I0
aI18477
aI1890511
aI674902
aa(lp549
I0
aI5717
aI294
aI14
aI135
aI3701
aI329467
aI521014
aa(lp550
I0
aI180
aI12316
aI7545
aI732
aI438966
aI163303
aI81195
aI99858
aI421718
aa(lp551
I0
aI6902
aI52
aI441766
aI155034
aI262435
aa(lp552
I0
aI339946
aI146
aI515673
aa(lp553
I0
aI143
aI21346
aI1763
aI12960
aI69781
aI6371
aI7454
aI60235
aI8370
aI87271
aI21096
aI140555
aI1767
aI207158
aI1177387
aI267
aI618548
aI266
aI104757
aI1081595
aI10945
aI80268
aI175066
aa(lp554
I0
aI321
aI12552
aI87
aI115
aI445542
aI159886
aI273719
aI12302
aI390
aI52972
aI4946
aI7847
aI10472
aI5014
aI121
aI429474
aI425
aI107
aI69404
aI21583
aI56417
aI33452
aI58350
aI4395
aI173609
aI75342
aI32834
aI133964
aI19279
aI14062
aI165916
aI433538
aI756192
aI169798
aI52
aI252348
aa(lp555
I0
aI340658
aI158
aI263357
aI165613
aI22876
aI1160
aI1086
aI538
aI58511
aa(lp556
I0
aa(lp557
I0
aI875
aI142
aa(lp558
I0
aI259640
aI5459
aI90560
aI429443
aI5251
aI5790
aI770
aI220
aI2157
aa(lp559
I0
aI5744
aI480
aI218
aI12326
aI56896
aI23444
aI14617
aI84128
aI86290
aI1620362
aI675111
aa(lp560
I0
aa(lp561
I0
aI16510
aI805
aI86407
aI58705
aI13466
aI306
aa(lp562
I0
aI11370
aI417
aI582538
aI261148
aI11616
aI7290
aI647
aI432
aa(lp563
I0
aa(lp564
I0
aI15414
aI68943
aI9770
aI478
aI268
aI626
aI583550
aI98200
aI676579
aI351732
aI92
aa(lp565
I0
aI14920
aI61417
aI596725
aI872201
aI78681
aI453779
aI170317
aI362621
aI132778
aa(lp566
I0
aI183
aI310
aI453231
aI250748
aI1144223
aI336992
aI9218
aI479891
aa(lp567
I0
aI78
aI629
aI76
aI7517
aI6507
aI94444
aI6877
aI54568
aI83323
aI1660
aI345469
aI11132
aI20199
aI60377
aI22682
aI974
aI62341
aI9703
aI1194
aI1205
aa(lp568
I0
aI1174
aI434699
aI159690
aI259191
aI421962
aa(lp569
I0
aI15271
aI4387
aI62
aI257
aI639
aI1336
aI580387
aI3799
aI601288
aI251036
aI105570
aI250084
aI5123
aI74872
aI3059
aI14940
aI254638
aI237341
aI3247
aa(lp570
I0
aI2839
aI36
aI914
aI47
aI686
aI903
aI21
aI5416
aI3103
aI4063
aa(lp571
I0
aa(lp572
I0
aI2181
aI14969
aa(lp573
I0
aI1516
aI3078
aa(lp574
I0
aI449787
aI1209015
aI517884
aI412147
aI372
aI81288
aa(lp575
I0
aI68
aI591
aI1304
aI203
aI64499
aI11933
aI3768
aI1293
aI10380
aI22415
aI53387
aI1243
aI29779
aI253
aI2209
aI1335
aI47383
aa(lp576
I0
aI13085
aI14923
aI68411
aI66883
aI51
aI604513
aI120103
aa(lp577
I0
aI1568
aI723
aI11958
aa(lp578
I0
aI39
aI254821
aI447436
aa(lp579
I0
aa(lp580
I0
aI9905
aa(lp581
I0
aa(lp582
I0
aI335308
aI457283
aI57955
aa(lp583
I0
aI12062
aI65833
aI601226
aI186307
aI170812
aI854
aI247642
aI1712
aI42
aI17547
aI92563
aI154810
aI266438
aI3792
aa(lp584
I0
aa(lp585
I0
aI64144
aa(lp586
I0
aI9475
aI1202
aI185
aI175539
aI107
aI72
aI499747
aI98518
aI59774
aI25194
aI4519
aI3621
aa(lp587
I0
aI68459
aI45
aI129
aI598876
aI21123
aI680512
aI616413
aI96657
aI146
aI603885
aI8280
aI51478
aI254670
aI806
aI3048
aI1171
aI5584
aI217
aa(lp588
I0
aI1395
aI139
aI592194
aI12073
aI755419
aI275847
aI445641
aI57590
aI102776
aI329179
aI79837
aa(lp589
I0
aI1922
aa(lp590
I0
aI11322
aI70139
aI13057
aI152015
aI603214
aI3615
aI436419
aI400
aI1310
aI2572
aI5591
aI77582
aa(lp591
I0
aI2260
aI592361
aI105879
aa(lp592
I0
aI1659
aI238
aI3319
aI1209
aI220
aI592506
aI771140
aI277083
aI599226
aI99
aI503355
aI272405
aI18869
aI850
aI48763
aI21466
aI1564
aI7466
aI5732
aI389
aI1595
aI482973
aI2283
aI13387
aI1290
aa(lp593
I0
aI259
aI154702
aI604216
aI30027
aI611
aI1079
aa(lp594
I0
aI255
aI363
aI436975
aI156377
aI1938
aI353314
aI499439
aI595
aa(lp595
I0
aI95
aI433424
aI1013863
aI344559
aa(lp596
I0
aI156789
aI1755
aI1227
aI24052
aI264
aI600149
aI613923
aI403221
aI341950
aI14911
aI1335
aa(lp597
I0
aI146
aI131
aa(lp598
I0
aI222
aI1361
aI449
aa(lp599
I0
aI9207
aI85462
aI579921
aI94638
aI88186
aI5699
aI7386
aI197
aI347214
aI224751
aI346885
aa(lp600
I0
aI3657
aI4826
aI313
aa(lp601
I0
aI7451
aI267
aa(lp602
I0
aI11832
aI322
aI582607
aI592080
aI279895
aa(lp603
I0
aI330
aI427748
aI600
aI154743
aI336911
aa(lp604
I0
aI68288
aI594775
aI99984
aI98239
aI338629
aI263331
aI5000
aI87416
aI344729
aI265236
aI75277
aI491290
aa(lp605
I0
aI75068
aI265
aI85
aI3268
aI3390
aI147
aI741378
aI439165
aI5230
aI1825
aI1065
aI28
aI385
aI300
aI6324
aI186
aI589
aI5697
aa(lp606
I0
aI425960
aI159051
aI255516
aI8543
aI75170
aI2827
aa(lp607
I0
aI6539
aI815
aI8034
aI65850
aI12029
aI58744
aI2365
aI1480
aI1109
aI377
aI617
aI455078
aI19
aI955456
aI251471
aI1350
aI56578
aI88650
aI15004
aI72504
aI3682
aI9802
aI8747
aI63034
aI911
aI3519
aI541
aI421129
aI374
aa(lp608
I0
aI7210
aI450
aI1893569
aI745943
aa(lp609
I0
aI191
aI1077
aI585860
aI4710
aI93404
aI490763
aa(lp610
I0
aI118
aI426960
aI164595
aI4025
aI74379
aI251985
aI916
aI631
aI518
aI2967
aI770
aI9144
aI153
aI439947
aI167036
aI50
aI71672
aI263011
aI9010
aI79663
aI4897
aa(lp611
I0
aI112
aI427334
aI253006
aI75957
aI114082
aI88510
aI341924
aI3623
aa(lp612
I0
aI5824
aI69523
aI16319
aa(lp613
I0
aI69789
aI66775
aI604569
aI120300
aI347137
aI60699
aI82225
aI181848
aa(lp614
I0
aI1877602
aI597556
aI163872
aa(lp615
I0
aI54808
aI33143
aI163396
aI428041
aI7556
aI67553
aI153407
aI3340
aI852
aI128
aa(lp616
I0
aI53936
aa(lp617
I0
aI82843
aI579442
aa(lp618
I0
aI160
aI418536
aI150059
aI67
aI48
aI499
aI732
aI621143
aI1097
aI869
aI430852
aI519395
aI414808
aI20645
aI98635
aI2274
aI153776
aI154612
aI254610
aa(lp619
I0
aI537
aI19761
aI500
aa(lp620
I0
aI38206
aI278954
aI510359
aa(lp621
I0
aI8599
aI44
aI43
aI115809
aI573407
aI114042
aI431852
aI491093
aI15277
aI70
aI65837
aI90321
aI943
aI153
aa(lp622
I0
aI417477
aI154227
aa(lp623
I0
aI58
aI420337
aI164955
aI102879
aI6600
aI139321
aI22
aI6181
aI499668
aa(lp624
I0
aa(lp625
I0
aI701
aI27804
aI579591
aI100615
aI46
aI8060
aI754137
aI341920
aI278412
aI426816
aI89295
aI7382
aI55
aI750177
aI179298
aI110896
aa(lp626
I0
aI224847
aI92272
aI249214
aI81341
aI861
aI5174
aI15588
aI4946
aI5617
aI58204
aI3396
aa(lp627
I0
aa(lp628
I0
aI51548
aI710
aI1838530
aI745926
aa(lp629
I0
aI52710
aI18752
aa(lp630
I0
aI53978
aI833
aI27809
aI579601
aI249741
aI366950
aI501988
aI6277
aI4584
aI364624
aI86
aI66
aI573390
aI258055
aa(lp631
I0
aI73166
aI71
aI86076
aI258145
aI151396
aI55
aI271832
aI268
aI1268
aI11819
aI1802
aI56215
aI7779
aI3284
aI77252
aI358383
aI179600
aI17158
aa(lp632
I0
aI362617
aI240861
aI521543
aI280872
aI1179
aI7862
aI308655
aI1975
aa(lp633
I0
aI24984
aI68949
aI106919
aI91346
aI55275
aI255235
aI28104
aI1207035
aI745566
aa(lp634
I0
aa(lp635
I0
aI572
aI598399
aI95312
aI4080
aI87905
aI914
aI1440
aI601
aa(lp636
I0
aI20880
aI1812
aI535
aI587989
aI98741
aI98217
aI338896
aI82553
aI506429
aI106095
aa(lp637
I0
aI16473
aI585142
aI2804
aI7183
aa(lp638
I0
aI24592
aI159
aI642
aI1361622
aI459194
aI500532
aI245707
aa(lp639
I0
aI25213
aI50596
aI188823
aI194
aI505292
aI600077
aI7748
aa(lp640
I0
aI1035
aI14892
aI53862
aI179
aI604585
aI120215
aI1540642
aa(lp641
I0
aI454
aI24427
aI34
aI41
aI587051
aI260129
aI518555
aI21107
aI98252
aI245727
aI55937
aa(lp642
I0
aI591626
aI603118
aI204
aI267899
aa(lp643
I0
aI18712
aI10113
aI464
aI579587
aI23531
aI587160
aI17778
aI146
aI96
aI684659
aI586868
aI124
aI613732
aI192252
aI60248
aI46
aI19
aI866171
aa(lp644
I0
aa(lp645
I0
aI20615
aI14211
aI580428
aI96389
aI96586
aI404016
aI267107
aa(lp646
I0
aI6778
aI5043
aa(lp647
I0
aI12303
aI595812
aI100848
aI418809
aI263920
aI20715
aa(lp648
I0
aa(lp649
I0
aa(lp650
I0
aI8762
aI659
aI632
aI449
aI228
aI16122
aI30
aI327291
aI36
aI523260
aI502954
aI15938
aa(lp651
I0
aI83
aI8194
aI104
aI3538
aI8734
aI1930
aI587964
aI97953
aI174496
aI498953
aa(lp652
I0
aI979
aI270
aI540577
aI71258
aI98197
aI431266
aa(lp653
I0
aI713
aI316
aa(lp654
I0
aI26447
aI1918
aI584178
aI18755
aI153062
aI8282
aI4396
aI271
aI11236
aI61439
aI7571
aI3795
aa(lp655
I0
aI552116
aI58448
aI5365
aI265204
aI122
aI1876
aI12775
aI64053
aI1898
aI6844
aI157155
aI34353
aI46341
aI5040
aa(lp656
I0
aI65247
aI552
aI585
aI47
aI1082
aI16
aI602053
aI93598
aI357272
aI254773
aI957077
aI189699
aI21
aI218422
aa(lp657
I0
aa(lp658
I0
aI4921
aI61622
aI7936
aI83553
aI26155
aI1683
aI977
aI138774
aI1492898
aI832232
aa(lp659
I0
aI31514
aI3388
aI3464
aI568148
aI133
aI688832
aI438322
aI83848
aI2696
aI1961
aI14020
aI1345
aI14149
aI50024
aI22197
aI15955
aI55059
aI75891
aa(lp660
I0
aI22528
aI16172
aI594576
aI724
aI71364
aI516625
aI9607
aa(lp661
I0
aa(lp662
I0
aI274
aI2229
aI3431
aI198269
aI1145
aI177
aI77839
aI261966
aI57623
aI7057
aI9922
aI4096
aI2681
aI2967
aI52204
aa(lp663
I0
aI64
aI179
aI38
aI600735
aI37674
aI483891
aI259068
aI8888
aI7522
aI1266
aI2424
aI84701
aI236799
aI35
aI27221
aI55685
aI3187
aI80
aI38
aI112061
aI515831
aI511689
aI1268439
aa(lp664
I0
aI82692
aa(lp665
I0
aI1228
aI61165
aI7083
aI83983
aI24857
aI143875
aI256722
aI34645
aI131111
aI41998
aI928366
aI930672
aI451
aa(lp666
I0
aa(lp667
I0
aI8
aI4174
aI19242
aI61333
aI920
aI10468
aa(lp668
I0
aI598015
aI101427
aI98227
aI338915
aI1985
aI72277
aa(lp669
I0
aI8139
aI243732
aI264756
aI171935
aa(lp670
I0
aI2310
aI19512
aI190
aI130
aI70
aI579733
aI6781
aI105048
aI601
aI238877
aI175679
aI1114
aI348371
aI81268
aI1582
aa(lp671
I0
aI225
aI554
aI439
aI162367
aI90934
aI21883
aI260779
aI64497
aI3984
aI2078
aa(lp672
I0
aI589423
aI273727
aI503413
aI19653
aI1906
aI719
aI2722
aa(lp673
I0
aI60628
aI25
aI28857
aa(lp674
I0
aI63740
aI12493
aI98635
aI579
aI616471
aI1293982
aI416588
aI90141
aI75
aI755251
aa(lp675
I0
aa(lp676
I0
aI3862
aI477
aI1628
aI67
aI532
aa(lp677
I0
aa(lp678
I0
aa(lp679
I0
aI4802
aI12
aI131
aI259358
aI332305
aI504243
aa(lp680
I0
aI11360
aI581395
aI94691
aI98652
aI582093
aI110202
aI3799
aa(lp681
I0
aa(lp682
I0
aa(lp683
I0
aI580092
aI96253
aI98572
aI337333
aI1280567
aI250205
aa(lp684
I0
aI136
aa(lp685
I0
aI598
aI2349
aa(lp686
I0
aI10676
aI579576
aI15978
aI145066
aI198096
aa(lp687
I0
aI496913
aI73761
aI10683
aI461
aI4394
aa(lp688
I0
aI57090
aI7579
aI9641
aI592412
aI19786
aI184
aI215
aI95
aI681195
aI93051
aI325516
aI279269
aI342758
aI373
aI167451
aI100660
aI435613
aI44
aI135
aI53402
aI687950
aa(lp689
I0
aI198
aI578655
aI93822
aI98665
aI436019
aa(lp690
I0
aI167
aI2044
aI136
aI3512
aI501820
aI242583
aI602823
aI796
aI16666
aI606
aI16980
aI73428
aI7688
aa(lp691
I0
aI45112
aI13897
aI3009
aI214
aI1422
aI131
aI108
aI604211
aI84864
aI7920
aa(lp692
I0
aI244
aI494855
aI279466
aa(lp693
I0
aI481
aI185
aI582259
aI95778
aI72
aa(lp694
I0
aI8505
aI52782
aI3986
aI602624
aI668
aI171625
aI522568
aa(lp695
I0
aI479035
aI6171
aI14956
aI69208
aI82232
aI39497
aI74172
aI586
aI4449
aI2728
aI543
aI158467
aI410117
aI35664
aI70257
aI77854
aI410216
aI702008
aa(lp696
I0
aI54415
aI524617
aI160166
aI101015
aI92803
aI873313
aI831670
aa(lp697
I0
aa(lp698
I0
aI898
aI232
aI452
aI223366
aI356
aI284518
aI80823
aI60201
aI1617
aI44
aI1007
aI7834
aI98
aa(lp699
I0
aa(lp700
I0
aa(lp701
I0
aI50026
aI32983
aI2000
aI47
aI56671
aI30584
aI1475
aI81472
aa(lp702
I0
aI5150
aI593913
aI155828
aI423896
aI2079
aI2881
aI383
aI91182
aI70663
aI9294
aI104567
aI135
aI230316
aa(lp703
I0
aI578319
aI526854
aa(lp704
I0
aI4902
aa(lp705
I0
aI81024
aI4074
aI54181
aI12534
aI15537
aI68342
aI75612
aI778382
aI26247
aI2801
aI770
aI1777512
aI22385
aI19676
aI51
aI643984
aI1422
aI10322
aI28852
aI560
aI46420
aa(lp706
I0
aa(lp707
I0
aI379
aI590133
aI6674
aI574
aI4953
aI137867
aI601312
aI9403
aI23813
aI314361
aI8688
aa(lp708
I0
aI8630
aI7699
aI17306
aI96
aI15
aI132
aI600804
aI410052
aI278318
aI48812
aI12416
aI350343
aI2444
aI13316
aI352
aI7707
aI53787
aa(lp709
I0
aI8921
aI5758
aa(lp710
I0
aI8591
aI10044
aI13153
aI935
aI601415
aI421471
aI186143
aI147827
aI254484
aa(lp711
I0
aI116
aI61
aI604522
aI613257
aI276684
aI497545
aI266686
aa(lp712
I0
aI13330
aI3697
aI15378
aI58175
aI13086
aI19536
aI142988
aI256285
aI82315
aI1136984
aI784659
aI63245
aa(lp713
I0
aI31696
aI138
aI600742
aI184691
aI342806
aI1196626
aI169395
aI100425
aI50355
aa(lp714
I0
aI927
aI603459
aI782696
aI270715
aI23223
aI316
aI38239
aI16310
aI1151
aI522
aa(lp715
I0
aI675985
aI10091
aI103750
aI93013
aI872166
aI832595
aa(lp716
I0
aa(lp717
I0
aI8492
aI9176
aI1438
aI12303
aa(lp718
I0
aI8807
aI203
aI103969
aI499697
aa(lp719
I0
aI6296
aI601778
aI23830
aI385942
aI121578
aI347868
aI516656
aI414257
aI26045
aI226022
aa(lp720
I0
aI297
aI8441
aI107
aI1038061
aI365267
aI2101
aI607895
aa(lp721
I0
aI21714
aI2800
aI98475
aI73532
aI4093
aI2141
aI907
aI471
aI112
aI63214
aI1101
aI166843
aI88603
aI29500
aI657798
aI85859
aI7339
aI176206
aI3889
aI1419
aI311
aI164480
aI1191
aI365517
aI573322
aa(lp722
I0
aI6379
aI8023
aa(lp723
I0
aI8126
aI8986
aI16044
aI764
aI146
aI599856
aI183491
aI342305
aI332101
aI518403
aI410114
aI256768
aa(lp724
I0
aI7536
aI8049
aI85
aI599822
aI113574
aI419323
aI344635
aI502250
aI32890
aI517757
aI86264
aI44968
aa(lp725
I0
aI8791
aI801
aI2232
aI49
aI56
aI531898
aI510497
aI1442
aI4442
aI14819
aI45903
aI2612
aI119
aa(lp726
I0
aI196
aI603553
aI171853
aI432117
aI796
aI303
aI195
aI3445
aI1190
aI2705
aI6204
aI113
aI36
aI502709
aI105540
aI1027465
aI701269
aI695
aa(lp727
I0
aI9657
aI16542
aI599852
aI99
aI10156
aI1599
aI749078
aI258161
aa(lp728
I0
aI9490
aI9563
aI433297
aa(lp729
I0
aI4877
aa(lp730
I0
aI161
aI457813
aI61859
aI222
aI2652
aI3292
aI7953
aI786
aa(lp731
I0
aI823
aI364
aI319
aI601407
aI17980
aI82621
aI501212
aI5274
aa(lp732
I0
aa(lp733
I0
aI87
aI290
aI1131
aI601816
aI119293
aI1001131
aI540619
aI746
aI20
aI45
aI995
aI104737
aI84966
aI218468
aa(lp734
I0
aI1402
aI346
aI169
aI517365
aI266792
aa(lp735
I0
aI602610
aI83454
aI600310
aI5575
aI20824
aI124
aI13199
aI323108
aI86472
aI37
aI157230
aI3800
aa(lp736
I0
aI3860
aI4235
aI443
aI253678
aI201338
aI67072
aI1517
aI4092
aI1781
aI10003
aI62768
aI25368
aI13
aI329
aI263
aI155
aI349
aI12
aI274
aI863
aI1136
aa(lp737
I0
aI4407
aI6787
aI61
aI244
aI160
aI536214
aI60618
aI20384
aI181916
aI342139
aI330694
aI519371
aI667566
aa(lp738
I0
aI601895
aI93827
aI417950
aI202086
aI43733
aI12750
aI478
aI6312
aI16405
aI46
aI229341
aI23343
aI1137
aI924
aI302
aI1524
aI2850
aa(lp739
I0
aI79495
aI97303
aI958
aI15346
aI908
aI474
aI1545
aI382
aa(lp740
I0
aI97
aI104989
aI499725
aI637956
aI403256
aI158681
aa(lp741
I0
aI601379
aI429558
aI279467
aa(lp742
I0
aa(lp743
I0
aI19394
aI63135
aI85
aI521126
aI3821
aI504436
aa(lp744
I0
aI1536
aI57
aI601268
aI28286
aI746976
aI879678
aI94190
aI9485
aI143964
aI30
aI25792
aI133927
aa(lp745
I0
aa(lp746
I0
aI600065
aI113459
aI417645
aI347897
aI516545
aI445457
aI220766
aa(lp747
I0
aI516165
aI515897
aa(lp748
I0
aI105
aI436464
aa(lp749
I0
aI15858
aI600383
aI1348
aI407662
aI269730
aa(lp750
I0
aa(lp751
I0
aI15432
aI8238
aI715
aI596045
aI232674
aI292977
aI329694
aI444477
aI158009
aI423980
aI158012
aa(lp752
I0
aI59991
aI11216
aI17176
aI315
aI660
aI643
aI2277
aI101
aa(lp753
I0
aI284
aI569
aI267
aI981
aI679
aI384
aI3280
aI11275
aI574574
aI27914
aI242721
aI1761
aI178047
aI8225
aI143228
aI545596
aI407
aI1497
aI917359
aa(lp754
I0
aI815
aI182
aI602413
aI100025
aI338946
aI241635
aI364595
aI283
aI133
aI66002
aa(lp755
I0
aI1855
aa(lp756
I0
aI1936
aI1814
aI2362
aI10749
aI531
aI249479
aI334935
aI504636
aI745
aI1667
aI435
aI93
aI1694
aI8264
aI5313
aI6228
aI2246
aI497979
aI8344
aa(lp757
I0
aa(lp758
I0
aI1888
aI155
aI595855
aI3348
aI272
aI102787
aI49265
aa(lp759
I0
aI1024
aI743
aI3311
aI760
aI49015
aI27484
aI18501
aI1657
aa(lp760
I0
aI274
aI13
aI609
aI358
aa(lp761
I0
aa(lp762
I0
aI2904
aI1359
aI1956
aI1308
aI602025
aa(lp763
I0
aI1561
aI144
aI594561
aI690261
aI720902
aI418012
aI2411
aI59521
aI110547
aI8061
aI4010
aI514
aI259746
aI81621
aI69069
aI5486
aI937
aI3234
aa(lp764
I0
aI11806
aI58149
aI1980
aI1048
aI47
aI134
aI326
aI517876
aI29
aI691065
aI527277
aI91969
aI10271
aI7802
aI41420
aI25053
aI2473
aa(lp765
I0
aI1684
aI1042
aa(lp766
I0
aI211
aI387
aI2209
aI162550
aI353690
aI3408
aI514386
aa(lp767
I0
aI11377
aa(lp768
I0
aI817
aI605845
aI513167
aa(lp769
I0
aI96971
aI66246
aI74748
aI208532
aI162862
aI469
aI28
aI170
aI57535
aI38079
aI65176
aI962471
aI838981
aI79166
aa(lp770
I0
aI7052
aI600165
aI60907
aI526518
aa(lp771
I0
aI57833
aI11546
aI10070
aI5960
aI175
aI714
aI60827
aI608631
aI368176
aI332245
aI1359906
aa(lp772
I0
aI3814
aI599571
aI4384
aI750397
aI344327
aI280723
aa(lp773
I0
aI598711
aI398709
aI6
aI10
aI24
aI350
aI453545
aI161509
aI22320
aI928
aa(lp774
I0
aI46510
aI18438
aI3451
aI1048
aI10173
aI1406
aI147463
aI181215
aI1278
aI154711
aI4745
aI24328
aI59296
aI32335
aI1623
aI158391
aI152259
aI722459
aI917615
aa(lp775
I0
aI2028
aI46896
aa(lp776
I0
aa(lp777
I0
aI2012
aa(lp778
I0
aI150
aI220
aI34
aI204
aI175
aI150571
aI5
aI283
aI445581
aI583489
aI79640
aI1898
aI6370
aI6280
aI75256
aI288064
aI234393
aI514248
aI851
aI102
aI3988
aI16754
aI67115
aI734
aI451276
aa(lp779
I0
aI122491
aI42
aI61899
aI4081
aI249187
aI34230
aI62271
aI23566
aI86957
aI1027960
aI832940
aI85336
aa(lp780
I0
aI118672
aI832507
aI1200
aI267441
aI9385
aI1978
aa(lp781
I0
aI555263
aI57843
aI112340
aI255
aI334735
aI93675
aI4062
aI1677
aI114
aI402832
aI22305
aI345628
aI412519
aI526
aI331171
aa(lp782
I0
aI14007
aI3702
aI506
aI1966
aI8559
aI57918
aI551704
aI80
aI485917
aI190119
aa(lp783
I0
aI27516
aI59328
aI34208
aI877
aa(lp784
I0
aI2424
aI607612
aI357045
aI428879
aI366814
aI174880
aI411652
aI89133
aI170568
aI64197
aa(lp785
I0
aI2128
aI538032
aI165127
aI14256
aI63181
aI158140
aa(lp786
I0
aI820
aI33
aI114
aI2169
aI106424
aI596312
aI407615
aa(lp787
I0
aa(lp788
I0
aI5843
aI7712
aI212
aI3072
aI259
aI13217
aa(lp789
I0
aa(lp790
I0
aI5776
aI12986
aI9195
aI5728
aI52096
aI4634
aI704996
aI251465
aI15063
aI7615
aa(lp791
I0
aI5770
aI70
aI457
aI603
aI607541
aI604227
aI92647
aa(lp792
I0
aa(lp793
I0
aI5330
aI1346
aI360
aI16583
aI11085
aa(lp794
I0
aI301
aa(lp795
I0
aI285
aI611
aI2061
aI624865
aI421726
aI1210299
aI244130
aI158702
aa(lp796
I0
aI9607
aI252
aI455
aI605926
aI20536
aI154246
aI420275
aI338987
aI18715
aI74737
aI119107
aI47818
aI9438
aI32
aI6909
aa(lp797
I0
aI6149
aa(lp798
I0
aa(lp799
I0
aI607787
aI711956
aI349740
aI263376
aI416621
aa(lp800
I0
aI684
aI20498
aI1330
aI3963
aI92
aI607
aI337785
aI171046
aI196
aI111
aI797458
aI252463
aI419248
aI428815
aI103368
aI6181
aI224
aa(lp801
I0
aI5250
aI926
aI191
aI152
aI616
aI604318
aI20725
aa(lp802
I0
aI76
aI39
aI556086
aI234440
aI163243
aI290260
aI54079
aa(lp803
I0
aI606148
aI445603
aI12486
aI54840
aI184527
aa(lp804
I0
aa(lp805
I0
aI607804
aI522805
aI12433
aI87402
aI4537
aa(lp806
I0
aI170
aI336
aI622
aI453
aI602338
aI507864
aI61
aI1862
aI91066
aI522
aa(lp807
I0
aI1566
aI96278
aI334819
aI250916
aI4707
aI241
aa(lp808
I0
aI2623
aI158
aI603723
aa(lp809
I0
aa(lp810
I0
aI2853
aa(lp811
I0
aa(lp812
I0
aa(lp813
I0
aI227
aI105
aI607184
aI598831
aI347197
aI175685
aI456860
aI223707
aI105184
aa(lp814
I0
aa(lp815
I0
aI1345
aa(lp816
I0
aI318
aI2240
aI82
aI30
aI601909
aI28113
aI69
aI102
aI279
aa(lp817
I0
aI603002
aI356307
aI21
aI257568
aI702004
aI403160
aI93995
aI3065
aI5424
aI180975
aI157449
aI110282
aI53169
aI2329
aI4333
aI850
aI2056
aI7481
aI652
aI1440
aI19
aI80124
aI73371
aI9205
aI85643
aI10419
aI162691
aI15142
aI63921
aI2028
aI305
aI12536
aI18
aI5760
aI67606
aI25093
aI57281
aI10848
aI9229
aa(lp818
I0
aI82
aI2711
aI508627
aI125
aI160858
aI12850
aa(lp819
I0
aI36
aI6063
aI9618
aa(lp820
I0
aI3616
aI1629
aI5076
aI51
aI48
aI665218
aI379402
aI331579
aI518500
aI413952
aI103550
aI17653
aI62932
aa(lp821
I0
aI363
aa(lp822
I0
aI4714
aI8790
aa(lp823
I0
aI4871
aa(lp824
I0
aa(lp825
I0
aI7273
aa(lp826
I0
aI1475
aI104
aI724
aI409542
aI307
aI1990
aI2001
aI3909
aI2668
aI6423
aI2117
aI73000
aI182413
aI9532
aI61282
aI176212
aI4085
aI2821
aa(lp827
I0
aa(lp828
I0
aI2210
aI447
aa(lp829
I0
aI150
aI591805
aI518009
aa(lp830
I0
aI76872
aI549
aI86
aI595907
aI340060
aa(lp831
I0
aI1622777
aI1020665
aa(lp832
I0
aI177
aI2583
aI21
aI2549
aI285
aI725
aI205
aI495668
aI187691
aI122
aI18
aI1198
aI158
aI2208
aI224282
aI879
aI5450
aI618
aI17521
aI91
aI2151
aI6161
aI5555
aI45617
aI2456
aa(lp833
I0
aI2784
aa(lp834
I0
aI388
aI483
aI664764
aI1590
aI8076
aI248230
aI94368
aI164721
aI472
aI20459
aI997
aI524
aI56307
aa(lp835
I0
aI1023
aI493804
aI46
aI505587
aI16744
aI14645
aI53587
aI98264
aI1967
aa(lp836
I0
aI903846
aI16872
aI265949
aI1569
aa(lp837
I0
aI872
aI1430
aI113
aI658240
aI523020
aI88
aa(lp838
I0
aI356
aI404467
aI276080
aI453
aI243316
aI7635
aI338
aI896
aI17217
aI47045
aI21137
aI16218
aI1357
aI1885
aI27
aI73970
aI495110
aI3107
aI13408
aa(lp839
I0
aa(lp840
I0
aI8104
aI14714
aI4369
aI844018
aI605137
aI446391
aI355386
aI85289
aI15976
aI52022
aI30599
aI232821
aa(lp841
I0
aI39275
aI809
aa(lp842
I0
aI18948
aI22475
aI54586
aI167306
aI3055
aI90905
aI28845
aI87462
aI53132
aI33155
aI1027554
aI835112
aI169536
aa(lp843
I0
aI25566
aI4013
aa(lp844
I0
aI1175
aI348
aI616313
aI1238150
aI322178
aI500093
aa(lp845
I0
aI4064
aI11884
aI53935
aI619973
aI181565
aI590292
aI93621
aI62106
aI949668
aa(lp846
I0
aI17486
aI10400
aI714
aI65806
aI1355
aI204410
aI255422
aI577254
aI422065
aI11874
aI284199
aa(lp847
I0
aI15244
aI33
aI378
aI21810
aI51200
aI207661
aI65790
aa(lp848
I0
aI704767
aI368515
aa(lp849
I0
aI5026
aI64272
aI2048
aI957
aI166766
aI16340
aa(lp850
I0
aI14707
aI2770
aI70382
aI207674
aI89
aI673066
aI686710
aI110127
aI53440
aI15282
aI141
aI11428
aI76601
aI1012440
aa(lp851
I0
aI13205
aI71568
aI206916
aI66340
aI16118
aI63577
aI1128277
aI1020222
aa(lp852
I0
aI441531
aI2476
aI276
aI500635
aI992
aI1323
aI8719
aI7969
aa(lp853
I0
aI360
aI615433
aI23302
aI981
aI305643
aI1108
aI2402
aI716
aI982
aI6093
aI6368
aI28
aI24266
aI50329
aI2149
aI80011
aI4013
aa(lp854
I0
aI10345
aI10669
aI67322
aI166841
aI16174
aa(lp855
I0
aI525642
aI438902
aI13155
aI52892
aI273283
aI7976
aI145873
aI637
aa(lp856
I0
aI4346
aI65423
aI183525
aI106863
aI70200
aI16749
aI87151
aI155923
aI872574
aI1090742
aa(lp857
I0
aI4759
aI4960
aa(lp858
I0
aI15386
aI160
aI301
aI835835
aI2767
aI263602
aa(lp859
I0
aI1267
aI5962
aI3788
aa(lp860
I0
aI19103
aI253737
aI287
aI3634
aI657911
aI200948
aI8649
aa(lp861
I0
aI1029
aI1328
aI6306
aI4740
aI912
aI917
aI453
aI4088
aI830311
aI453357
aI518254
aa(lp862
I0
aI2074
aI18744
aI188
aI174
aI580040
aI357455
aI593174
aI77070
aa(lp863
I0
aa(lp864
I0
aI4037
aI75008
aI167769
aa(lp865
I0
aa(lp866
I0
aI113
aI141
aI843950
aI7821
aI260236
aI482
aI19762
aI56401
aI2339
aI29
aI352713
aI90700
aI940
aI7911
aI169
aI68029
aa(lp867
I0
aI60514
aI17994
aa(lp868
I0
aI14695
aI208
aI827422
aI253035
aa(lp869
I0
aI10331
aa(lp870
I0
aa(lp871
I0
aI118
aI825914
aI107970
aI1703324
aa(lp872
I0
aI3017
aI1035
aI334
aI53924
aI775275
aI664
aI16286
aI270961
aa(lp873
I0
aI58966
aI22
aI777295
aI260811
aI782523
aI5475
aI238541
aI14469
aa(lp874
I0
aI48206
aI4741
aI943
aI13863
aI3140
aI766186
aI257016
aI12103
aI1839
aI9839
aI656
aI56489
aI10001
aI633
aI883039
aI50479
aI93949
aI182415
aI3450
aI514695
aI336847
aI9994
aI16428
aI50808
aI32402
aI31
aI7378
aI1285
aI44096
aa(lp875
I0
aI5813
aI164222
aI9217
aI121
aI11155
aa(lp876
I0
aI779465
aI1193
aI266738
aa(lp877
I0
aI168638
aI22129
aI549
aI2526
aI165
aI673542
aa(lp878
I0
aI162
aI52876
aI1734
aI3411
aI851
aI774035
aI117884
aI77280
aI54201
aI165
aI785
aI613362
aI116475
aI72643
aI159042
aI265921
aI103127
aI499306
aI341814
aI363051
aI21
aa(lp879
I0
aI1202
aI834304
aI109107
aI345640
aa(lp880
I0
aa(lp881
I0
aI52811
aI167830
aI15725
aI20985
aI76529
aa(lp882
I0
aa(lp883
I0
aa(lp884
I0
aI1795
aI412
aI778331
aI103013
aI577671
aI285773
aI417485
aI115901
aI390281
aa(lp885
I0
aa(lp886
I0
aI53558
aI167910
aI15382
aa(lp887
I0
aI354
aI827155
aI104463
aa(lp888
I0
aI158
aI52386
aI167622
aI16798
aI21045
aI66425
aI13851
aI60684
aI30073
aI84876
aI61369
aI8264
aI86218
aI247542
aI120384
aI226134
aI776931
aI596324
aa(lp889
I0
aI1492085
aI78608
aI595811
aI416861
aa(lp890
I0
aI1011
aI346640
aI176180
aI434649
aI2550
aI415
aI457
aa(lp891
I0
aI1252
aI56
aI32
aI775322
aa(lp892
I0
aI6188
aI676
aI402
aI906
aI4030
aI6942
aI1948
aI881
aa(lp893
I0
aI1288
aI241
aI556
aI5005
aI2398
aI327
aI370
aI4519
aI1573
aI154261
aa(lp894
I0
aI1236
aI8261
aI773720
aa(lp895
I0
aa(lp896
I0
aI455
aI521308
aI7159
aI526216
aI12709
aI942
aI434424
aI50177
aI2794
aI14007
aI2563
aa(lp897
I0
aI774722
aI118695
aI159169
aI342058
aI347698
aI413514
aI116288
aI64568
aI330179
aa(lp898
I0
aI417
aI406
aI957
aI3149
aI1635
aI5241
aI2153
aI153897
aI15026
aI69250
aI116094
aI6794
aI52754
aI33919
aI1026383
aI1178472
aa(lp899
I0
aI3311
aI67
aI773756
aI152
aI202045
aI402243
aI357780
aI348632
aI169459
aI100499
aI309319
aa(lp900
I0
aI302
aa(lp901
I0
aI253
aa(lp902
I0
aI1715
aI6488
aI2378
aI31
aI300
aI3601
aI427
aI262566
aI147232
aI526972
aa(lp903
I0
aI4015
aI160735
aI15958
aI11981
aI60702
aI28119
aI57529
aI136
aI181132
aI135
aI206
aI422845
aI168846
aa(lp904
I0
aI64
aI3751
aI64
aI161314
aI16041
aI13907
aI939
aI68477
aI15231
aI1067
aI91986
aI134242
aI960081
aI602559
aI595885
aa(lp905
I0
aI3495
aI161672
aI2040
aI114
aI684779
aI10002
aI358492
aI78
aI64
aI29
aI603217
aI244844
aI83242
aa(lp906
I0
aI1215
aI144
aI771175
aI201766
aI50691
aI5323
aI72395
aI2255
aI7866
aI5471
aI340548
aI2080
aI10711
aI2959
aI15200
aI44408
aa(lp907
I0
aa(lp908
I0
aa(lp909
I0
aI166
aI1365
aI415822
aI453561
aa(lp910
I0
aI2077
aI158040
aI116
aI636865
aI658964
aI93967
aa(lp911
I0
aI2894
aI400
aI157621
aI15166
aI19251
aI65626
aI71361
aI26696
aI230
aI434662
aI6160
aa(lp912
I0
aI54
aI775565
aI439010
aI537617
aI322410
aI586154
aa(lp913
I0
aI451
aI158094
aI14764
aa(lp914
I0
aa(lp915
I0
aI141183
aI17964
aI13
aI14893
aI69191
aI30204
aI68255
aa(lp916
I0
aI2306
aI1504
aI31
aI87
aI154261
aI15179
aI19206
aI51413
aI29435
aa(lp917
I0
aI205
aI1036
aI538
aI2256
aI85
aI767005
aI162341
aI187635
aI386
aI204
aa(lp918
I0
aa(lp919
I0
aI498
aI25
aI169
aI680
aI787
aa(lp920
I0
aa(lp921
I0
aI484
aI153911
aI13
aI91
aI370120
aa(lp922
I0
aI155
aI352170
aI513819
aI41
aI20173
aI36
aI65644
aI5413
aa(lp923
I0
aI11577
aI69157
aI29359
aI59714
aI34542
aI85482
aI153683
aI1735
aI181535
aI143995
aI547516
aI1176759
aa(lp924
I0
aa(lp925
I0
aI11266
aI69502
aI29549
aI1190842
aI522237
aI671287
aa(lp926
I0
aa(lp927
I0
aI4211
aI44
aI53
aI591528
aI17684
aI1640
aI298
aI65
aI123
aa(lp928
I0
aI18634
aI4447
aI69330
aI20755
aI10891
aI58012
aI129
aI250
aI636776
aI138691
aI267890
aa(lp929
I0
aI1649
aI105
aI681392
aI168338
aI85995
aI36719
aI216805
aI679
aI438
aI769
aI19233
aI74579
aI15179
aI6521
aI58632
aI1243
aI275
aa(lp930
I0
aI416
aa(lp931
I0
aI20821
aI69482
aI20848
aI11158
aI61124
aI27697
aI84719
aI57761
aI99455
aI1330
aI181399
aI63775
aI113996
aI53081
aI4778
aI456178
aI1176648
aa(lp932
I0
aI20873
aI10023
aI254
aI226377
aa(lp933
I0
aI20743
aI3016
aI82
aI673123
aI789398
aa(lp934
I0
aI20957
aI69413
aI693262
aI436138
aa(lp935
I0
aa(lp936
I0
aI21097
aI9326
aI865
aI677
aI669989
aI28
aI167901
aI178323
aI8680
aI150445
aI93623
aI86518
aI33279
aI52254
aI998
aI3091
aa(lp937
I0
aI5803
aa(lp938
I0
aI4617
aI7267
aI4598
aI21024
aI672459
aI278906
aI340101
aa(lp939
I0
aI21030
aI16717
aI204
aI654381
aI263469
aa(lp940
I0
aa(lp941
I0
aI21426
aI364
aI167
aI12
aI15
aI161
aI229
aI674323
aI193614
aI88028
aI2013
aI4692
aI1483
aI327
aI216060
aI1233
aa(lp942
I0
aI22420
aI78
aI11
aI568
aI673118
aI256658
aI353588
aI81462
aI1294
aI119
aI252
aI703
aI1426
aI2907
aI4210
aI286
aI312
aI4597
aI1632
aI566
aI12207
aI572889
aI168697
aI16202
aI359
aI17291
aI56467
aI18403
aI157747
aI108911
aI54040
aI87141
aI20335
aI333777
aI29526
aI47439
aI11231
aI506012
aI1891
aI89329
aa(lp943
I0
aa(lp944
I0
aI14409
aI197
aI182
aI440
aI671683
aI79940
aI179828
aI3595
aI461
aI4113
aI2700
aI18753
aI60744
aI160009
aI3532
aa(lp945
I0
aI16479
aI670470
aI24662
aI331348
aI182472
aI346313
aa(lp946
I0
aI21946
aI431
aI12
aI17
aI141
aI673008
aI881351
aI428569
aI89577
aI2004
aa(lp947
I0
aI22935
aI5284
aI1543
aa(lp948
I0
aI2345
aI171
aI1529
aI987
aI595
aI87861
aI202
aI130
aI114
aI597
aI679722
aI167959
aI338597
aI9136
aI104088
aI69444
aI2745
aI6801
aI64123
aI2320
aI1821
aI38
aI7426
aI8496
aI260364
aI4012
aa(lp949
I0
aI22803
aI6455
aI1352
aI69740
aI14544
aa(lp950
I0
aI23229
aI3438
aI1688
aI1871
aI56392
aI109
aI182
aI689502
aI60
aI42
aI308
aI1204
aI623986
aI102533
aI155105
aI413780
aI102308
aI6417
aI155
aI2399
aI4095
aI1807
aI62298
aI9745
aI325855
aI18037
aI335
aI69174
aI38
aI14887
aI177326
aI244767
aI16816
aI328
aa(lp951
I0
aI23784
aI11906
aa(lp952
I0
aI3231
aa(lp953
I0
aI253068
aI514038
aI163523
aI1675
aI7924
aI7050
aI249302
aI2594
aI28986
aI7684
aI38850
aa(lp954
I0
aa(lp955
I0
aa(lp956
I0
aI20097
aI9791
aI94
aI672265
aI346237
aI364461
aa(lp957
I0
aI20701
aI1126
aI77
aa(lp958
I0
aI37
aI158
aI18983
aI58492
aI607103
aI201623
aI41746
aI13652
aI364386
aI715
aa(lp959
I0
aa(lp960
I0
aa(lp961
I0
aI74
aI18849
aI603860
aI592541
aI84930
aI4650
aI785975
aI489052
aa(lp962
I0
aI2412
aI20647
aI65696
aI15406
aI64734
aI13209
aI15845
aI85931
aI155379
aI168540
aa(lp963
I0
aI5558
aa(lp964
I0
aa(lp965
I0
aa(lp966
I0
aI50
aI69
aI55
aI423
aI679976
aa(lp967
I0
aI16586
aI115
aI671217
aI357261
aI1548052
aI70077
aa(lp968
I0
aI17880
aI5965
aI189
aI2639176
aa(lp969
I0
aI17844
aI69228
aI117
aa(lp970
I0
aa(lp971
I0
aI2355
aa(lp972
I0
aa(lp973
I0
aI16686
aI1006
aI429
aI676478
aI351454
aI516599
aI412451
aI121837
aI61533
aI353874
aI148751
aa(lp974
I0
aa(lp975
I0
aI16533
aI89810
aI2791
aI690761
aI844645
aI257722
aI13645
aI9090
aI513
aI154091
aI617012
aI50596
aa(lp976
I0
aI17168
aI70444
aI4775
aI315
aI198
aI671461
aI429
aI514105
aI6299
aI100247
aI17809
aI54058
aI1526
aI15107
aI74971
aI512256
aI79950
aa(lp977
I0
aa(lp978
I0
aI1858
aI21611
aI148
aI672978
aI763100
aI113135
aI604567
aI435079
aI48604
aa(lp979
I0
aI16514
aI69410
aI14645
aI7670
aI223
aI656627
aI260172
aI398
aI12456
aI2076
aI153495
aI6083
aa(lp980
I0
aa(lp981
I0
aI73
aa(lp982
I0
aI19015
aI4643
aI73
aI159
aI327880
aI1136
aI80
aI635717
aI340941
aI6559
aI75230
aI77664
aI6087
aI2668
aI58932
aI14818
aI24623
aI218472
aI17930
aI65957
aI4557
aI826
aI441
aI83530
aI278347
aI255439
aI2755
aa(lp983
I0
aI19135
aI6117
aI46
aI98
aI675470
aI25414
aI372
aI3243
aI487989
aI89796
aI2581
aI12562
aI1537
aI9602
aI49192
aI3793
aI3266
aI337
aI185936
aI251584
aa(lp984
I0
aa(lp985
I0
aI4117
aI454
aI1157
aI2154
aa(lp986
I0
aI18795
aa(lp987
I0
aI324
aI277
aI110
aI179356
aI8621
aI159532
aI250
aI257584
aI1873
aI1339
aa(lp988
I0
aI107335
aI47
aI585626
aI261240
aa(lp989
I0
aI9274
aI673926
aI361095
aI184467
aI1503
aa(lp990
I0
aI9551
aI714
aI448
aI677251
aI687910
aa(lp991
I0
aI1743
aI15837
aI68237
aI17413
aa(lp992
I0
aa(lp993
I0
aI928
aI172
aI673981
aI712984
aI182321
aI416481
aI89195
aI100188
aI222320
aI255907
aa(lp994
I0
aI9314
aI290
aI676782
aI70481
aI83395
aI2200
aI262
aI486
aa(lp995
I0
aa(lp996
I0
aI71
aI28
aI7721
aI523
aI675641
aI15352
aI663843
aI15020
aI678907
aI28206
aI328860
aI83663
aI185221
aI523
aa(lp997
I0
aI674457
aI168
aI361226
aI443309
aI71660
aI237898
aI84564
aI86927
aI3928
aI99529
aI9320
aI58198
aI3106
aI4277
aI5929
aI8828
aI852
aI18762
aI56925
aI12838
aI151790
aI390
aI6120
aa(lp998
I0
aa(lp999
I0
aI15714
aI69160
aI64
aI17341
aI58028
aI33056
aI1175
aI532
aI53158
aI98348
aI84974
aI247087
aI83546
aI33287
aI50238
aI29251
aa(lp1000
I0
aI102
aI324270
aI428524
aI3261
aI2775
aI1850
aa(lp1001
I0
aI72619
aI55
aI19827
aI61067
aI29379
aI85293
aI157782
aI872734
aI1298272
aI51747
aa(lp1002
I0
aa(lp1003
I0
aa(lp1004
I0
aI16965
aI104
aI328526
aI500414
aI1207
aI9921
aI13115
aI4038
aa(lp1005
I0
aa(lp1006
I0
aI16362
aI57624
aI547178
aI63
aI249703
aI358593
aI566554
aI85304
aa(lp1007
I0
aa(lp1008
I0
aI3591
aI265
aI229
aI676852
aI351494
aI337244
aI103965
aI63414
aI9245
aI251558
aa(lp1009
I0
aI260340
aI343273
aa(lp1010
I0
aI8539
aI16228
aI58618
aa(lp1011
I0
aI679301
aI89931
aI186683
aI13058
aI327788
aI161227
aI2710
aI175084
aI11027
aI173077
aI1676
aa(lp1012
I0
aa(lp1013
I0
aI354
aI1098
aI677291
aI641850
aI63956
aI8408
aI490
aa(lp1014
I0
aI16266
aI60040
aI688729
aI88088
aI180834
aI1170
aI30
aI32
aI152265
aa(lp1015
I0
aI93
aI677317
aI367458
aI598860
aI355038
aI100121
aI61308
aI249309
aI86129
aa(lp1016
I0
aI438
aI45781
aI7002
aa(lp1017
I0
aa(lp1018
I0
aa(lp1019
I0
aa(lp1020
I0
aI683218
aI117434
aI67252
aI409170
aI285843
aI68
aI413245
aI614498
aI68926
aa(lp1021
I0
aI75
aI10
aI80
aI160878
aI994
aI636913
aI68378
aI335314
aI1046842
aa(lp1022
I0
aI152
aI677561
aI770748
aI109072
aI411114
aI619088
aI69888
aa(lp1023
I0
aI39
aI160236
aI531513
aI69433
aI189366
aI11145
aI1640
aI251797
aI14195
aI45915
aa(lp1024
I0
aa(lp1025
I0
aI12544
aa(lp1026
I0
aa(lp1027
I0
aI11700
aa(lp1028
I0
aI118
aI827154
aI344515
aI19225
aI4617
aI10542
aI1339
aI139937
aI4285
aI190259
aI236025
aI6242
aI30891
aI1973
aI47252
aa(lp1029
I0
aI1036
aI10289
aI65622
aI15146
aI62818
aI29290
aI86108
aI138
aI686491
aI345034
aI261937
aI417358
aI90020
aI72832
aI88
aI702855
aI156236
aI96746
aa(lp1030
I0
aI336
aI74
aI93
aI331835
aI505675
aI159
aI7994
aI18510
aI8641
aI45576
aI2114
aI2120
aI979
aa(lp1031
I0
aa(lp1032
I0
aa(lp1033
I0
aI21
aI677762
aI16261
aI137846
aI345347
aa(lp1034
I0
aI69240
aa(lp1035
I0
aI1271
aI673280
aI1966394
aa(lp1036
I0
aa(lp1037
I0
aa(lp1038
I0
aI2761
aI65500
aI44
aI16902
aI65944
aI23408
aI86882
aI156356
aI872100
aI1349924
aa(lp1039
I0
aI673578
aa(lp1040
I0
aa(lp1041
I0
aI60318
aI313
aI684683
aI517795
aI288311
aI74941
aI350254
aI92447
aI3760
aI413404
aI237186
aa(lp1042
I0
aI582
aI279
aa(lp1043
I0
aI238009
aI370
aI83608
aI532523
aI190
aI61557
aI958
aI404
aI1437
aI12111
aI70854
aI1020
aI20218
aI170870
aI159049
aI4548
aI473
aa(lp1044
I0
aI12073
aI22544
aI61869
aI32209
aI748540
aI519542
aI506531
aI96088
aI7544
aI5082
aI579
aI1431
aI455
aI2678
aI436
aI78634
aI77202
aI160842
aI385
aI7163
aI2408
aa(lp1045
I0
aI12561
aI6364
aa(lp1046
I0
aI46
aI88
aI627108
aI153027
aI346783
aI29492
aI56959
aI5209
aI476
aI61
aa(lp1047
I0
aI2461
aI631
aI511
aa(lp1048
I0
aI23917
aI11153
aI60511
aI30059
aI86025
aI154021
aI1546
aI181460
aI93761
aI51421
aI29743
aI256
aI15
aI1514
aI363
aI2400
aI96
aI57
aI44
aI658825
aI119053
aI417231
aI14050
aI85728
aI1245
aI413173
aI187948
aI331812
aI410056
aa(lp1049
I0
aa(lp1050
I0
aI30065
aI568169
aI204323
aI3551
aI22
aI3127
aI306755
aI4034
aa(lp1051
I0
aI19907
aI1188
aI12358
aI62540
aI15200
aI6615
aI57672
aI19455
aI18864
aI56980
aa(lp1052
I0
aI340
aa(lp1053
I0
aI690560
aa(lp1054
I0
aI212
aI17709
aI20017
aI567401
aI189983
aI15263
aI3143
aI1953
aI333166
aI13969
aI40739
aI8008
aI5420
aI1763
aI3143
aa(lp1055
I0
aI17448
aI56
aI176
aI686216
aI249574
aI282094
aI178009
aI576373
aI91963
aI344365
aI485
aI163119
aI130
aI1269
aI777
aI1775
aI25793
aI49506
aI21836
aI15375
aI55430
aI169372
aI903
aI85430
aI2227
aI85
aa(lp1056
I0
aI243
aa(lp1057
I0
aI294
aa(lp1058
I0
aI17964
aI17018
aI203
aI659005
aI189002
aa(lp1059
I0
aI18208
aI510492
aI167687
aI190653
aI10185
aa(lp1060
I0
aI150
aI1145
aI17086
aI16811
aI59381
aI29450
aI84114
aI157175
aI2206
aI159594
aI41
aI615721
aI4548
aI426799
aI265631
aI14452
aI143360
aI13651
aI15452
aI64103
aI244782
aI3502
aI2171
aI794561
aI589946
aI74
aa(lp1061
I0
aI706
aI546402
aI227638
aI335697
aa(lp1062
I0
aI136
aI683153
aa(lp1063
I0
aa(lp1064
I0
aI556
aI17452
aI13477
aI3802
aa(lp1065
I0
aa(lp1066
I0
aI574
aI242
aI188
aI50
aI266046
aI261956
aI505
aI1306
aI26664
aI54
aI45265
aI772
aa(lp1067
I0
aI683210
aI78387
aI355795
aI25193
aI52038
aI6928
aI1996
aI12553
aI1502
aI57128
aI154
aI456
aa(lp1068
I0
aI549
aa(lp1069
I0
aI216
aI602617
aI193615
aI12698
aI1920
aI66338
aI136
aa(lp1070
I0
aI13488
aI13705
aI61712
aI3962
aI96
aI687382
aI341671
aI77595
aI151
aI5983
aI881
aI134
aI1474
aI10835
aI4729
aI13174
aI51955
aI32265
aI50837
aa(lp1071
I0
aa(lp1072
I0
aa(lp1073
I0
aI683296
aa(lp1074
I0
aI83
aa(lp1075
I0
aI13610
aI11080
aI62400
aI28671
aI87119
aI64585
aI121
aI347053
aI28
aa(lp1076
I0
aI13401
aI778
aI8127
aI167
aI460
aI6318
aI690403
aa(lp1077
I0
aa(lp1078
I0
aI1973
aI6239
aI859225
aI250942
aI1043266
aI456900
aI161051
aI431148
aI91441
aI34
aI230110
aa(lp1079
I0
aI100
aI676801
aI33338
aI44908
aI354766
aI83613
aa(lp1080
I0
aI355
aI688019
aI32371
aI77867
aI333315
aI681570
aI693228
aI166551
aI3742
aI3679
aI244857
aI9621
aI76003
aI6200
aI806
aI21565
aI29
aI75062
aa(lp1081
I0
aI630083
aI89283
aI142699
aI637
aa(lp1082
I0
aI745
aa(lp1083
I0
aI683710
aI73349
aI552311
aI159665
aI1184111
aa(lp1084
I0
aa(lp1085
I0
aa(lp1086
I0
aI76904
aI1774
aI181
aI169832
aI1253
aI554
aI13184
aa(lp1087
I0
aI7117
aI12888
aI164
aa(lp1088
I0
aI6884
aI1368
aI727
aI685628
aI250249
aI173970
aI3464
aa(lp1089
I0
aI226
aI676550
aI14030
aI69752
aI363905
aa(lp1090
I0
aa(lp1091
I0
aI7165
aI5518
aa(lp1092
I0
aI109
aI11332
aI83901
aI59188
aI38900
aI64975
aI92026
aI172350
aa(lp1093
I0
aI5746
aI9346
aI285
aI231
aI693997
aI55726
aI118469
aI990
aI47928
aI1190
aI170804
aI4671
aI28606
aI239861
aI6353
aI11691
aI154153
aI195700
aI137954
aI186733
aI6486
aI16210
aI57756
aI201152
aI81375
aa(lp1094
I0
aI484
aI142
aI125
aI75251
aI63
aI412690
aI138
aI605078
aI5564
aI176203
aI2557
aI7444
aI3454
aI85052
aI59187
aI87
aI16088
aI1016
aI67
aa(lp1095
I0
aI559
aI58
aI1301
aa(lp1096
I0
aI57
aI680732
aI249900
aI453477
aI158136
aI352415
aI65998
aI35080
aI63324
aI3849
aI348952
aI233285
aa(lp1097
I0
aI120
aI582133
aI273605
aI8842
aI233262
aa(lp1098
I0
aI535
aa(lp1099
I0
aI63241
aI9838
aI8280
aI13266
aI87127
aI154443
aI857893
aI182359
aI605056
aI8006
aI161925
aI499519
aI2047
aa(lp1100
I0
aI3597
aI128
aI59
aI49
aI181
aI13
aI71
aI1717
aI657232
aI9964
aI606
aI681687
aa(lp1101
I0
aI695150
aI774443
aI1036044
aI650
aI138863
aa(lp1102
I0
aI6417
aI165
aI2179
aa(lp1103
I0
aI5840
aI63048
aI10864
aI10655
aI57685
aI18851
aI18753
aI154005
aI605630
aI604523
aI352721
aI595030
aI11005
aI422878
aI63748
aa(lp1104
I0
aa(lp1105
I0
aI5831
aI63230
aI14302
aI6407
aI75974
aI9829
aI1084
aI147
aI692223
aI260295
aI52356
aI780190
aI100089
aI829
aa(lp1106
I0
aI2041
aI1088
aI526093
aI575153
aI163078
aI8472
aa(lp1107
I0
aI197
aI1482
aI922
aI665880
aI19930
aI62248
aI89790
aI11017
aI9644
aI278
aI4735
aI484028
aI5308
aa(lp1108
I0
aI717
aI72
aI678975
aI250455
aI162805
aI198631
aI93036
aI48785
aI36039
aI2286
aI248
aI2320
aI396439
aa(lp1109
I0
aI1015
aI59
aI1536
aI693160
aI136327
aI257813
aa(lp1110
I0
aI202
aI122
aI677027
aI17752
aI60860
aI11416
aI1873937
aa(lp1111
I0
aI53686
aI639941
aa(lp1112
I0
aI54692
aI19051
aI1495
aI685676
aI52
aI335887
aI84086
aI1020
aI14122
aI173084
aI87639
aI245973
aa(lp1113
I0
aI63
aI692158
aI85664
aI1643
aI398681
aI278825
aI417538
aI115748
aI412349
aI237098
aa(lp1114
I0
aI53245
aI11579
aI18399
aa(lp1115
I0
aI482
aI652536
aI169416
aI7134
aa(lp1116
I0
aI48985
aI4161
aI606709
aa(lp1117
I0
aI640301
aI400278
aI93875
aI14657
aI52508
aa(lp1118
I0
aI10453
aI16664
aI2951
aI276
aI681397
aI74101
aI262834
aa(lp1119
I0
aI5572
aI1226005
aI595852
aI700784
aI61428
aa(lp1120
I0
aI15262
aI589319
aI186271
aI13068
aI62654
aI165939
aI8071
aa(lp1121
I0
aI12770
aI17889
aI78027
aI13263
aI98
aI22
aI683612
aI437210
aI80367
aI161612
aI2075
aI944153
aI326981
aa(lp1122
I0
aI26266
aI662899
aI346004
aa(lp1123
I0
aI12139
aI20405
aI5585
aI746582
aI86327
aI3801
aI1735
aI359
aI311
aI162709
aI1871
aa(lp1124
I0
aI11322
aI2691
aI19569
aI2560
aI2681
aI1007762
aI15412
aI79889
aI84411
aI81670
aI19957
aI144673
aI626577
aI352767
aa(lp1125
I0
aI12721
aI124
aI689248
aI427047
aa(lp1126
I0
aI1642
aa(lp1127
I0
aa(lp1128
I0
aa(lp1129
I0
aI13959
aI14839
aI77835
aI164132
aI183688
aI10324
aI55361
aI233
aI634383
aI170079
aI161408
aI350168
aI96365
aI62072
aI353605
aI782472
aI57225
aa(lp1130
I0
aa(lp1131
I0
aI18186
aI5573
aI145
aI187
aI1907
aI348
aI5486
aI674791
aI8520
aI3682
aI1030716
aI248795
aI3135
aI668767
aa(lp1132
I0
aI14215
aI14079
aI77127
aI163912
aI2614
aI181554
aI67390
aI78461
aI84845
aI15306
aI17
aI43
aI47
aI608578
aI105386
aI217845
aI353163
aI265439
aI1982
aa(lp1133
I0
aa(lp1134
I0
aI370
aI166038
aa(lp1135
I0
aI4740
aI689080
aa(lp1136
I0
aI13131
aI6107
aI676865
aI345988
aa(lp1137
I0
aa(lp1138
I0
aI14747
aI878
aI153148
aI49
aI435457
aI187149
aI9003
aI1852
aI171
aI222
aI120
aI12
aI7100
aI62802
aI341270
aI2275
aa(lp1139
I0
aI652
aI643
aI10781
aI1629
aI1766
aI4572
aI211
aI14258
aI3076
aI44927
aI698880
aI340565
aI437
aI14698
aI3303
aI5848
aI85256
aI10002
aI45942
aI49
aI31724
aI9931
aI331827
aI1956
aa(lp1140
I0
aI635153
aI649003
aI194146
aa(lp1141
I0
aI267
aI110
aI47
aI644231
aa(lp1142
I0
aa(lp1143
I0
aa(lp1144
I0
aI157
aI218
aI219
aI69
aI583
aI640803
aI136769
aI265854
aI28257
aI52291
aI318
aI63
aI3857
aI1338
aI8636
aI15499
aI48401
aa(lp1145
I0
aI1540
aI13103
aI1199
aI12077
aI619
aI57691
aI19152
aI4114
aI6412
aI7729
aI74585
aI72840
aI121
aI2698
aI182
aI613509
aI442487
aI349568
aI52153
aI2030
aI196
aI79668
aI88765
aI70261
aI6616
aI12904
aI1496
aI10325
aI19535
aI56002
aI16669
aI155292
aI10793
aI211
aI14695
aI166769
aI549
aI61868
aI2394
aI7865
aI190
aI7857
aI71569
aI9698
aI634
aI4795
aI4862
aI238562
aI17290
aI60826
aI5952
aa(lp1146
I0
aI3431
aI10918
aI600103
aI536616
aI1374380
aI147932
aa(lp1147
I0
aa(lp1148
I0
aI3051
aI23757
aI6835
aI326
aI268
aI161
aI963
aa(lp1149
I0
aI4581
aI595359
aI539001
aI1299682
aI138156
aI84501
aa(lp1150
I0
aI518
aI307
aI638399
aI777894
aI671334
aI156812
aI84172
aI33353
aI151659
aI80867
aI6913
aI7424
aa(lp1151
I0
aI3991
aI166537
aI260193
aI609940
aI270010
aI579883
aI344741
aI89047
aI11146
aI4437
aI7655
aI84785
aa(lp1152
I0
aa(lp1153
I0
aI576868
aI164593
aI2140
aI7262
aI14826
aI3833
aI9358
aI227485
aI1922
aI367134
aI235994
aI2653
aa(lp1154
I0
aI265
aI634987
aI138721
aI255226
aa(lp1155
I0
aI14802
aI10370
aI193
aI815
aI9
aI100
aI1925
aI53615
aI17040
aI7450
aI64813
aI99304
aI1478
aI169367
aI154
aI608374
aI67593
aI92646
aI306
aa(lp1156
I0
aI1621
aI8223
aI57765
aI27806
aI17
aI1534
aa(lp1157
I0
aI1129
aI938
aI3279
aI14213
aI53050
aI115
aa(lp1158
I0
aI19077
aI57652
aI18838
aI49
aa(lp1159
I0
aI5713
aI5176
aI203
aI684547
aI338732
aI359522
aI235786
aI86210
aI23135
aI58830
aI10368
aI193260
aI495227
aI11830
aI165360
aI14158
aI891
aa(lp1160
I0
aI67
aI92
aI689065
aI10982
aa(lp1161
I0
aI1528
aa(lp1162
I0
aI1519
aa(lp1163
I0
aI5441
aI4867
aI14324
aI53178
aI17706
aI242
aI1304
aI6490
aI160902
aI874866
aI1374842
aI74444
aI73613
aa(lp1164
I0
aI78
aI687012
aI354874
aI65775
aI240
aI7753
aI79358
aa(lp1165
I0
aI3986
aI147
aI6854
aI1359
aI156
aI505175
aI163
aI160283
aI125
aI17
aI80289
aI356019
aI63
aI298
aI196
aI11472
aI9758
aI56356
aI6196
aa(lp1166
I0
aI8351
aI61843
aI1792
aI700317
aI525896
aI14185
aI662322
aI15521
aI589
aI290
aI678373
aI427536
aI518912
aI16089
aa(lp1167
I0
aa(lp1168
I0
aa(lp1169
I0
aI13199
aI58150
aa(lp1170
I0
aI427
aa(lp1171
I0
aI497255
aI1701
aI176302
aI129
aI114
aI14
aI3111
aI87080
aI1103
aI1514
aI221
aI5670
aa(lp1172
I0
aI8389
aI58534
aI151
aI714684
aI5991
aI3054
aI605091
aI416615
aI89987
aI11058
aa(lp1173
I0
aa(lp1174
I0
aI674853
aI170695
aI1112
aI12761
aI167821
aI11161
aI59096
aI1205
aI17930
aI387
aI2971
aI64358
aI1247
aI4249
aa(lp1175
I0
aI14201
aI52772
aI19264
aI5259
aI68261
aI8605
aa(lp1176
I0
aI2454
aI588017
aI13048
aI64509
aI8964
aI31
aI109
aI668
aI5907
aI497
aI1310
aa(lp1177
I0
aa(lp1178
I0
aI4546
aI1704
aI865
aI113
aI224832
aI625279
aI154964
aI86413
aI14152
aI644
aI99467
aI68764
aa(lp1179
I0
aa(lp1180
I0
aa(lp1181
I0
aa(lp1182
I0
aI43
aI33
aI42
aI72
aI751702
aa(lp1183
I0
aI3756
aI85
aI662323
aI95354
aI12938
aI244032
aI15931
aI141405
aI1914
aI93
aa(lp1184
I0
aI880
aa(lp1185
I0
aa(lp1186
I0
aI136
aI75
aI678919
aI706030
aI1113935
aI106
aI759229
aI189779
aI1082
aa(lp1187
I0
aa(lp1188
I0
aa(lp1189
I0
aI5378
aa(lp1190
I0
aI549
aI109
aI749571
aI461728
aI67630
aI2028
aI12256
aI2236
aI34
aI74600
aI73847
aa(lp1191
I0
aa(lp1192
I0
aI95
aI1181
aI412
aI43
aI401542
aI600121
aI168474
aa(lp1193
I0
aI1063
aI125
aI653000
aI338889
aI105664
aI14398
aI58039
aI5591
aI22347
aI83261
aI323911
aI109343
aI11822
aI49870
aI371
aI362
aI85492
aI10458
aI1855
aI3363
aI1910
aI3835
aa(lp1194
I0
aI52926
aI298
aI696166
aa(lp1195
I0
aI4996
aI433
aI345431
aI13
aI69
aI105638
aI241279
aI264755
aa(lp1196
I0
aI14981
aI147
aI687133
aI30993
aI481500
aI86525
aa(lp1197
I0
aI9186
aI17152
aI4890
aI162415
aI182785
aI145197
aI85088
aI36022
aI149176
aI5308
aI1369270
aI271836
aI76747
aI15183
aI61363
aa(lp1198
I0
aI67
aI566732
aI258932
aI5580
aI188329
aI68597
aI1923
aI318
aI30380
aI513
aI474
aI102
aI12
aI830
aI49359
aI2734
aI109
aI281
aI103610
aI82669
aI9989
aI66189
aI168394
aI108531
aI58799
aI6344
aI21
aI9532
aI15554
aI47628
aI9186
aI1832
aI11895
aI194
aI1780
aI85379
aI427355
aI8985
aI63810
aa(lp1199
I0
aI9372
aI27478
aI103
aI189
aI674423
aI1243
aa(lp1200
I0
aI15112
aI13224
aI164332
aI2341
aI182115
aI144390
aI99100
aI22110
aI147655
aI595427
aI1121388
aI84131
aa(lp1201
I0
aI1943
aa(lp1202
I0
aI19861
aI90
aI88
aI107
aI701741
aI522474
aI156160
aI5814
aI422186
aI849044
aa(lp1203
I0
aI33854
aI1705
aI5766
aI116
aI659886
aI599804
aI263660
aa(lp1204
I0
aI2203
aI6074
aI8137
aI365
aI170352
aI616838
aI155534
aI82728
aI2404
aa(lp1205
I0
aI92
aI717824
aI325612
aI95666
aI21198
aI79
aI62
aa(lp1206
I0
aI15646
aI12639
aI264
aI693486
aI320667
aI105090
aa(lp1207
I0
aI19808
aI8856
aI163715
aI4440
aI87
aI102
aI768195
aI172494
aI77329
aI3739
aI2523
aI11999
aI10450
aI77717
aI65791
aI511385
aI5838
aI1431
aI1155
aI435512
aI5139
aI5383
aI77
aI4039
aI69233
aa(lp1208
I0
aa(lp1209
I0
aI17712
aI10432
aI292
aI694335
aI612872
aI321817
aI175112
aI102245
aI74603
aa(lp1210
I0
aI2752
aI19718
aI8643
aI50
aI207
aI669314
aI25250
aI3173
aI341842
aI261958
aI417246
aI89904
aI16294
aI821946
aa(lp1211
I0
aI20090
aI8507
aI64481
aI20021
aI9731
aI2253
aI150
aI675030
aI784061
aI182718
aI102
aI1001800
aI258684
aI5178
aI15903
aI596
aI5029
aI1349
aI312894
aI87423
aI1942
aI4646
aa(lp1212
I0
aI17294
aI6239
aa(lp1213
I0
aI698853
aI343913
aI203064
aI68997
aI502343
aI84294
aI1329
aI1169
aI1163
aa(lp1214
I0
aI2053
aI20236
aI78267
aa(lp1215
I0
aI15607
aI159
aI483
aI506813
aI181810
aa(lp1216
I0
aa(lp1217
I0
aa(lp1218
I0
aI19672
aI8865
aI56933
aI219
aI606821
aI355086
aa(lp1219
I0
aI3095
aI604097
aI354326
aI1127
aI492
aa(lp1220
I0
aI450
aI1333
aa(lp1221
I0
aI468
aI105
aI711150
aI243376
aI104
aI3318
aI275566
aI687
aa(lp1222
I0
aI2020
aI4628
aI204
aI510237
aI520546
aI81900
aI3634
aI8871
aI96293
aI431275
aI13165
aI50720
aI6800
aI9401
aI5831
aI11012
aI2309
aI52337
aI30412
aI52847
aI9768
aa(lp1223
I0
aI2128
aI17727
aI64082
aI10244
aI90593
aI157357
aI89473
aI100109
aI74101
aI20
aI177637
aI6191
aI111
aI612695
aI417277
aI92663
aI244710
aI287374
aI526139
aI477979
aa(lp1224
I0
aI1945
aa(lp1225
I0
aI341
aa(lp1226
I0
aI1215
aI16971
aI5977
aI1631
aI161038
aI152946
aI31690
aI143041
aI99097
aI22763
aI152251
aa(lp1227
I0
aI547
aI329
aI418
aI30
aI16263
aI290
aI1070
aI16
aI157
aI80
aI6423
aI12
aI35
aI69687
aI90944
aI2456
aI180318
aI4095
aI166
aI58845
aI2793
aI11995
aI177248
aI352490
aI5200
aI85358
aI311
aI49
aI31
aI48588
aI208574
aI74263
aI346678
aI2363
aI99833
aI153951
aI440308
aI77444
aI261707
aI234888
aa(lp1228
I0
aI294
aI601259
aI347735
aa(lp1229
I0
aI546
aI994
aI445
aI26
aI82
aI152
aI67
aI708677
aI322195
aI97812
aI18715
aI59709
aI254
aI5380
aI72
aa(lp1230
I0
aI710652
aI324638
aI200693
aI162241
aI141
aI350238
aI96134
aI61604
aI353803
aI343859
aI64055
aa(lp1231
I0
aI48
aI177
aI19667
aI65200
aI252795
aI9803
aa(lp1232
I0
aI8297
aI677847
aI340895
aI280871
aI82857
aI356699
aI75745
aI14852
aI154005
aa(lp1233
I0
aI356
aa(lp1234
I0
aI608
aa(lp1235
I0
aI1699
aI696566
aI523121
aI158705
aI359723
aI90505
aI412829
aI341416
aI68694
aa(lp1236
I0
aa(lp1237
I0
aa(lp1238
I0
aI273
aI337293
aI615728
aI846176
aI107399
aI2831
aI507484
aI178770
aI149805
aI12
aI764
aI239
aI1756
aI82239
aI8369
aI30779
aI51432
aI28846
aI1285
aI77401
aI12318
aI2171
aI2202
aa(lp1239
I0
aa(lp1240
I0
aI119
aI592542
aI83052
aI5168
aa(lp1241
I0
aI4233
aI2134
aI12990
aI151588
aI612776
aI183969
aI343380
aI75055
aI352953
aI80838
aI14181
aI64813
aI244857
aI287146
aI338979
aI71
aI59999
aa(lp1242
I0
aI980
aI418987
aI94726
aI419450
aI88387
aa(lp1243
I0
aa(lp1244
I0
aa(lp1245
I0
aI412
aa(lp1246
I0
aI5213
aI59056
aI8414
aI535
aI629200
aI340839
aI140078
aI93367
aI111
aI1277
aI350
aa(lp1247
I0
aI3313
aI1056
aI572296
aI343814
aI30312
aI3779
aI4722
aI40427
aa(lp1248
I0
aa(lp1249
I0
aI196
aI692598
aI612820
aI332189
aI4390
aI9487
aa(lp1250
I0
aI114
aI362
aI274
aI580481
aI26346
aI1567
aa(lp1251
I0
aa(lp1252
I0
aI314
aI579232
aI168685
aI4509
aI1071
aI741
aI162388
aI3564
aI28873
aI3084
aa(lp1253
I0
aI2900
aI2838
aI63989
aI3882
aI84607
aI612154
aI179265
aI344829
aI933124
aI21165
aI261840
aI239524
aI454
aa(lp1254
I0
aa(lp1255
I0
aa(lp1256
I0
aI115
aI664037
aI18727
aI324792
aI1475
aI881
aI1552310
aI431
aI809615
aa(lp1257
I0
aI3230
aI812
aa(lp1258
I0
aa(lp1259
I0
aI2858
aa(lp1260
I0
aI1894
aa(lp1261
I0
aa(lp1262
I0
aI155
aI685206
aI64412
aI422315
aI88348
aa(lp1263
I0
aI37
aa(lp1264
I0
aI51973
aI12259
aI86108
aa(lp1265
I0
aa(lp1266
I0
aI434
aI138167
aI241
aI622591
aI154094
aI100834
aI66023
aI809
aI1739
aI92938
aI8630
aa(lp1267
I0
aI5968
aI5750
aI623607
aI603239
aI376
aI416908
aI1012687
aa(lp1268
I0
aI10667
aI7760
aI686393
aI341300
aI90037
aa(lp1269
I0
aI420392
aI270957
aI7398
aI151743
aI4272
aI732
aa(lp1270
I0
aa(lp1271
I0
aI37267
aI222501
aI96527
aI25403
aI755
aI751080
aI116369
aI110
aI313849
aI97782
aI638
aI46
aI5420
aI71065
aI227
aI9846
aI10387
aI500
aI678917
aI90937
aI151128
aI317
aI3342
aI5863
aI12945
aI61102
aI42269
aI44959
aI1272
aa(lp1272
I0
aI8160
aI20483
aa(lp1273
I0
aa(lp1274
I0
aa(lp1275
I0
aa(lp1276
I0
aI3924
aI594689
aI263835
aI30621
aI247388
aI92692
aI1834
aa(lp1277
I0
aa(lp1278
I0
aI27204
aa(lp1279
I0
aI5267
aI629099
aI340892
aI831750
aI356912
aI160247
aI4319
aI555
aI3791
aI4892
aI939
aI2525
aI41
aI1863
aI24
aI65586
aI85
aI4582
aa(lp1280
I0
aI4284
aI4718
aI27807
aI74059
aI151046
aI31334
aI142029
aI89608
aI79
aI178233
aI620194
aI157730
aI690355
aI163068
aI95
aa(lp1281
I0
aI6912
aI22383
aI57049
aI1427
aI594
aI755
aI623730
aI495472
aI283622
aI10310
aI51282
aI1411
aI14546
aI8131
aa(lp1282
I0
aI838
aI6746
aI635610
aI340990
aI261479
aI75839
aI356550
aa(lp1283
I0
aI17249
aI67077
aI140
aI513407
aI268276
aI2649
aa(lp1284
I0
aI230158
aI8048
aI85133
aI100338
aI1794
aI736
aI64353
aI32165
aI59457
aI1154
aI544
aI1897
aI82586
aI284543
aI75943
aI102709
aa(lp1285
I0
aI151
aI6211
aa(lp1286
I0
aI4231
aI510322
aI164918
aI575
aI3472
aI551
aI132
aI168529
aI7592
aI29736
aI223054
aI3561
aa(lp1287
I0
aI4368
aI258530
aI3094
aI10296
aI3374
aI678828
aI1479207
aI146202
aa(lp1288
I0
aI15656
aI244
aI505120
aI166
aI2726
aI223
aI1161
aI288
aI11351
aI69535
aI821
aI599183
aI19590
aI876
aI66931
aI2768
aI440307
aI106
aI159494
aI200162
aI248
aa(lp1289
I0
aI6409
aI22849
aI57111
aI19
aI135
aI86
aI625660
aI336550
aI83443
aI224
aI61622
aI10445
aI362241
aI6930
aI2525
aa(lp1290
I0
aI10190
aI11092
aI86649
aI29240
aI49385
aI23922
aI74865
aI171326
aI6033
aI1807071
aI14163
aI59670
aa(lp1291
I0
aI4592
aI190
aI98494
aI754762
aI92581
aI89349
aI279
aI595
aI3106
aI3646
aI313
aI6252
aI9039
aI359
aI52544
aI155
aI24198
aI324981
aI9647
aI2934
aa(lp1292
I0
aI135
aI315
aI615577
aI339875
aI260831
aI74929
aI356310
aI244187
aI439807
aI3950
aI4146
aa(lp1293
I0
aI30892
aI679497
aI353242
aI68192
aa(lp1294
I0
aI21734
aa(lp1295
I0
aI7284
aI1138
aI588568
aI5380
aI416
aI101476
aI154162
aI12402
aI679
aI3958
aI2258
aI3111
aI113
aI12354
aI51616
aa(lp1296
I0
aI18662
aI7738
aI78818
aI181921
aI107
aI608330
aI225696
aI95259
aa(lp1297
I0
aI9030
aI13441
aI680081
aI534659
aI232219
aI369988
aI514986
aI2024
aI382
aI756157
aI339497
aa(lp1298
I0
aI257782
aI177883
aI256899
aI95
aI545
aI4715
aI188820
aI66896
aI1976
aI1373
aI165588
aI104646
aI228048
aI11966
aI6482
aI9361
aI8213
aI61682
aa(lp1299
I0
aI22068
aI350
aI256573
aI67147
aI82867
aI34169
aI134342
aI2437
aI6832
aI80991
aI180131
aI110075
aI167233
aI5180
aI1747
aI646
aI83
aI56931
aI81067
aI625486
aI591527
aI160215
aa(lp1300
I0
aa(lp1301
I0
aI22583
aa(lp1302
I0
aI22681
aI106
aI207
aI679322
aI341010
aI67916
aI10946
aI6678
aI591367
aI18340
aI83257
aI1722
aI704
aI2059
aI420193
aI6677
aI2642
aI10406
aI68381
aI90225
aI9339
aI300
aI245674
aI7580
aI18386
aI1936
aI508
aI97
aI44690
aI2834
aI12423
aI3156
aI586816
aI16960
aI19987
aa(lp1303
I0
aa(lp1304
I0
aI22781
aI18
aI241208
aI3047
aI75398
aI6836
aI682409
aI169666
aI25953
aI933
aI1094
aa(lp1305
I0
aI22657
aI36
aI6079
aI574
aI222
aI122
aI675057
aI443077
aI154437
aI355087
aI86242
aI14844
aI62454
aI246015
aI286729
aa(lp1306
I0
aI22460
aI62482
aa(lp1307
I0
aI22561
aI230088
aI6254
aI613917
aI17271
aI88009
aI65899
aI6864
aI629
aa(lp1308
I0
aI1118
aI539
aI230948
aI92710
aa(lp1309
I0
aI5901
aI90
aI678204
aI1101920
aI861282
aa(lp1310
I0
aI41
aI684379
aI411370
aI82969
aa(lp1311
I0
aI256548
aI79216
aI65844
aI86348
aI612653
aI116084
aI417889
aI106
aI753540
aI10317
aI336328
aI72848
aI13088
aI30588
aI81
aI2840
aI39
aI51432
aa(lp1312
I0
aI254276
aI4659
aI142150
aI85204
aI11498
aI96
aI610150
aI597711
aI684015
aI772083
aa(lp1313
I0
aI1650
aI54635
aI10681
aI258
aI85
aI223
aI615440
aI516768
aa(lp1314
I0
aa(lp1315
I0
aI220706
aI7885
aI33927
aI55062
aI75730
aI20646
aI82154
aI23021
aI146903
aI185749
aI97922
aI67965
aI166
aI3794
aI210
aI598101
aI111274
aI412356
aI105906
aI428106
aI174916
aa(lp1316
I0
aa(lp1317
I0
aI74
aI676300
aI444604
aI671627
aI791
aI404016
aI13748
aI984
aa(lp1318
I0
aI924
aI195
aI148
aI676178
aI518066
aI410129
aI27308
aI97418
aa(lp1319
I0
aI501
aI151
aI417842
aI258503
aa(lp1320
I0
aI18601
aI2224
aI673999
aI184358
aI168069
aI74540
aa(lp1321
I0
aI73913
aI150190
aI112
aI604436
aI297187
aI51635
aI86662
aI168236
aI2143
aI95
aI112
aa(lp1322
I0
aI625063
aI254193
aI1272322
aI180546
aI8855
aI316
aI2214
aI319077
aI4611
aI518
aI16725
aI484
aI40
aI60081
aI177221
aI91766
aI15289
aI6637
aI66441
aI9340
aI145526
aI8978
aI20864
aI15735
aa(lp1323
I0
aI223137
aI345466
aI273192
aa(lp1324
I0
aI65
aI295
aI516701
aI70905
aI263426
aa(lp1325
I0
aI16383
aI1247
aI50974
aI1847
aa(lp1326
I0
aI622412
aI49662
aI430714
aI89292
aI30618
aI222863
aI13790
aa(lp1327
I0
aa(lp1328
I0
aI641
aI584055
aI257272
aI2447
aI2066
aI28952
aI743
aI877
aI56637
aI17
aI7618
aI12391
aI2382
aI147402
aI8972
aI6205
aI69626
aa(lp1329
I0
aI218689
aI723581
aI1462558
aI232682
aa(lp1330
I0
aI154
aI673080
aI339512
aI95619
aI8267
aI57030
aI87966
aI1222
aI334509
aI4920
aa(lp1331
I0
aI10328
aI12994
aI615624
aI602315
aa(lp1332
I0
aI620259
aI340151
aa(lp1333
I0
aI93
aI620037
aI231138
aI77883
aI13366
aI3873
aI2151
aI2960
aI13103
aI66168
aI10327
aI59462
aI5390
aI2725
aI5306
aa(lp1334
I0
aI53453
aI194444
aI68055
aI22549
aI139744
aI18009
aI21027
aI151341
aI160954
aI27121
aI934
aI3334
aI73069
aI136893
aI12035
aI991
aI30114
aI95177
aI218488
aI977157
aI232044
aa(lp1335
I0
aI51072
aI1036
aI15579
aa(lp1336
I0
aI636
aI584731
aI355613
aI15144
aI1599
aI53769
aI345
aI4320
aI1997
aI2442
aI24726
aI52284
aa(lp1337
I0
aa(lp1338
I0
aI10413
aI52478
aI622526
aa(lp1339
I0
aa(lp1340
I0
aI309
aa(lp1341
I0
aI7640
aI766
aI188386
aI163
aI477
aI607252
aI1469
aI341233
aI9523
aI1523191
aI164455
aa(lp1342
I0
aI164
aI58
aI624
aI115
aI421
aI873
aI678169
aI443281
aI158092
aa(lp1343
I0
aI116
aI679026
aI242156
aI88182
aI159
aa(lp1344
I0
aI165547
aI85945
aI23724
aI379
aI62
aI682234
aI8721
aI7152
aI53506
aI11654
aI957
aa(lp1345
I0
aa(lp1346
I0
aI53102
aI777
aI46
aI20834
aI600205
aI4406
aI154470
aI82137
aI12900
aa(lp1347
I0
aI19
aI806
aI881
aI1262
aI131
aI60
aI100
aI674391
aI167814
aI618408
aI139910
aI101358
aI434373
aI153104
aI7543
aI16854
aI5597
aI68254
aI7313
aI72210
aI23017
aI52352
aI95772
aa(lp1348
I0
aa(lp1349
I0
aI170
aI84
aI149
aI151
aI675477
aI792720
aI667106
aI93197
aI10231
aI5244
aI51856
aI10592
aI1026
aI1190
aI8122
aI1501
aa(lp1350
I0
aI52837
aI623695
aI181606
aI60375
aI96414
aI92185
aI8864
aI20
aI54
aI51897
aI2327
aa(lp1351
I0
aI622093
aI597843
aI352885
aI84288
aI9719
aI417733
aI82491
aa(lp1352
I0
aI683
aI622909
aa(lp1353
I0
aI169470
aI83520
aI37202
aI55737
aI270
aI123
aI627801
aI180380
aI416585
aI89694
aI14990
aI66574
aI350245
aI923546
aa(lp1354
I0
aI4408
aI7779
aa(lp1355
I0
aI16696
aI181404
aI92
aI6619
aI75023
aI62608
aI85038
aI35686
aI28
aI148648
aI976770
aI996134
aa(lp1356
I0
aI1139
aI621733
aI772085
aI108770
aI154089
aI99600
aI498372
aI366744
aI48485
aa(lp1357
I0
aI10542
aI32975
aI65301
aa(lp1358
I0
aa(lp1359
I0
aa(lp1360
I0
aI11156
aI201
aI756811
aI28485
aI355941
aI331449
aI92679
aa(lp1361
I0
aI258962
aI5828
aI72026
aI33481
aI72299
aI1258
aI11298
aI153130
aI275763
aI1696777
aa(lp1362
I0
aI622563
aI181617
aI336560
aI236671
aI33810
aI2287
aI82112
aI48993
aI2878
aa(lp1363
I0
aI176550
aI74190
aI109504
aI192
aI615682
aI170061
aI2864
aI416520
aI87651
aI14472
aI65817
aI349596
aI15121
aI324467
aI585774
aa(lp1364
I0
aI1648
aI98
aI72
aI1608
aI812
aI372
aI617532
aI175519
aI347559
aI81408
aa(lp1365
I0
aI189
aI3616
aI616902
aI516144
aI414184
aI24639
aI3293
aI198
aI92239
aI412790
aI335177
aI168296
aa(lp1366
I0
aI168712
aI339874
aI344627
aI14485
aI15091
aI52579
aI33
aI189
aI24446
aI60746
aI26392
aI324406
aI13385
aI1707
aa(lp1367
I0
aI618402
aa(lp1368
I0
aI9
aI4550
aa(lp1369
I0
aa(lp1370
I0
aI1263
aI3756
aI756
aI770682
aI243542
aI95060
aI831
aa(lp1371
I0
aa(lp1372
I0
aI4160
aI497227
aI360691
aI14497
aI51979
aa(lp1373
I0
aI2387
aI3270
aI577
aI753370
aI627
aI101
aI623807
aI1245
aI238786
aI89904
aa(lp1374
I0
aI507888
aI265017
aI26379
aI1334
aI49774
aI470
aI518443
aI6791
aI5602
aI6885
aa(lp1375
I0
aI186160
aI171
aI608046
aI227253
aI92868
aI7687
aI6280
aI17705
aa(lp1376
I0
aI5042
aI153230
aa(lp1377
I0
aI506323
aI251601
aI3438
aI31134
aI56400
aI5820
aI7698
aI14854
aI166399
aI59242
aI2945
aI91
aI100968
aI602
aI161081
aI80232
aI8671
aI2708
aa(lp1378
I0
aI1465
aI573
aI1940
aI493864
aI1124
aI249171
aI13608
aI26998
aI12653
aI43457
aI6708
aI293
aI3505
aI330
aI4193
aI640
aI74
aI4188
aI4575
aI63326
aI788
aI147
aI3557
aI3184
aI976
aI1612
aI898
aI3612
aI1748
aa(lp1379
I0
aa(lp1380
I0
aI3777
aI2745
aa(lp1381
I0
aI181308
aI65323
aI81981
aI81821
aI181628
aI358313
aI1703146
aa(lp1382
I0
aI1050
aI754
aI323300
aI434300
aI82077
aI17274
aI636
aa(lp1383
I0
aI229
aI319
aa(lp1384
I0
aI605065
aI179880
aI346604
aI1436200
aa(lp1385
I0
aI147130
aI351877
aI269467
aI23292
aI53215
aI2060
aI13607
aI675
aI58122
aa(lp1386
I0
aI497101
aI269839
aa(lp1387
I0
aI102
aI497065
aI268101
aI2464
aI23151
aI49964
aI12114
aa(lp1388
I0
aI85968
aI4973
aI115801
aI282
aI61515
aI25586
aI86834
aI54631
aI11366
aa(lp1389
I0
aa(lp1390
I0
aa(lp1391
I0
aa(lp1392
I0
aI37052
aI267
aI40
aI836256
aI426924
aI1376881
aa(lp1393
I0
aa(lp1394
I0
aI32601
aI1130
aI4450
aI3412
aI60
aI278
aI686408
aI79753
aI57968
aI7384
aI3071
aI363
aI19473
aI312785
aI95855
aI81813
aI5174
aI2805
aI653
aI77185
aI401
aI8658
aI13804
aI59800
aI96
aa(lp1395
I0
aI604480
aI200575
aI95701
aI60312
aI10617
aI235781
aI12121
aa(lp1396
I0
aI2133
aI85
aI25601
aI588938
aI7341
aI64810
aI96341
aI259
aa(lp1397
I0
aa(lp1398
I0
aI488
aI4057
aI615232
aI15364
aI226029
aI84678
aI172
aI1073
aI1969
aI29442
aI55803
aI9
aI981
aI13235
aa(lp1399
I0
aI32447
aI86941
aI1033
aI59291
aI82004
aI181871
aI976819
aa(lp1400
I0
aI117437
aI56099
aI87223
aI8195
aI15555
aI346292
aI836
aI632
aa(lp1401
I0
aI148
aI604318
aI387
aI90306
aI78382
aI2251
aI316
aI4191
aI1238
aI22341
aI1314
aI57863
aa(lp1402
I0
aI3032
aI84996
aI99423
aI623908
aI150029
aI506834
aI17507
aI66452
aa(lp1403
I0
aI345889
aI271355
aa(lp1404
I0
aI79348
aI37026
aI55619
aI81648
aI181978
aI278230
aI218
aI1784576
aI84734
aa(lp1405
I0
aI32419
aI66063
aI22157
aI227
aI66871
aI1498
aI22307
aI59781
aI618975
aI101001
aI321787
aI174564
aI168
aI698642
aI241132
aa(lp1406
I0
aI47
aI612614
aI12100
aI339147
aa(lp1407
I0
aI32824
aI1805
aI352
aI187
aI389
aI946
aI51
aI80
aI226
aI2322
aI573021
aI90571
aI865
aI11438
aI604
aI401
aI9741
aI1244
aI49828
aa(lp1408
I0
aI32249
aI612
aI2495
aI1172
aI586
aI81
aI98
aI608373
aI910394
aI20721
aI350223
aI337081
aI161085
aI252393
aa(lp1409
I0
aa(lp1410
I0
aI56
aI43
aI12
aI54
aI77
aI614576
aa(lp1411
I0
aI18933
aI2187
aI55
aI155
aI94
aI834
aI608251
aI343592
aI77344
aI353458
aI1263117
aa(lp1412
I0
aI86813
aI100206
aI66049
aI30374
aI61484
aI86073
aI185087
aI106859
aI170213
aI153337
aI615270
aI860012
aI12354
aI3909
aI47757
aa(lp1413
I0
aI20631
aI38
aI608463
aI50360
aI536883
aI181963
aI593632
aI670414
aa(lp1414
I0
aI120
aI169512
aI108680
aI67581
aI266626
aI389
aa(lp1415
I0
aI329
aI8295
aI2643
aI258
aI3885
aI581441
aI79584
aa(lp1416
I0
aI612663
aI103690
aI232453
aI603391
aI364535
aI2721
aI502449
aI357132
aa(lp1417
I0
aI4808
aI4378
aI75425
aI13314
aI766643
aI92204
aI78287
aI352002
aI986
aI63051
aI34809
aI412384
aI335462
aI167466
aI338858
aa(lp1418
I0
aI608816
aI318283
aI16724
aI253897
aa(lp1419
I0
aI662
aI613707
aI328829
aI26363
aI68958
aI616485
aI159935
aI258796
aI7318
aI71295
aI94897
aI173269
aI10261
aI465
aI13345
aI6226
aI43707
aI38319
aI149
aI49057
aI7384
aI994
aI3207
aI2483
aI9257
aI510973
aI6064
aI69488
aI18063
aa(lp1420
I0
aI607577
aI178520
aI88069
aa(lp1421
I0
aI80933
aI4049
aI636925
aI65479
aI71464
aI6905
aI7548
aI10521
aI81644
aI261467
aa(lp1422
I0
aI534
aI10774
aI341
aI246104
aI360141
aI309999
aI268500
aa(lp1423
I0
aI32702
aI44
aI2066
aI607290
aI54655
aI164640
aI23229
aI21
aI4362
aI11426
aI47755
aa(lp1424
I0
aI615317
aI15066
aI337524
aI80564
aI352011
aI68217
aI29687
aI305551
aI28
aI786375
aa(lp1425
I0
aI33854
aa(lp1426
I0
aI249
aI608633
aI345819
aI1021279
aI261087
aI411785
aa(lp1427
I0
aI603940
aI8419
aI170297
aI75674
aI55373
aI16471
aI70
aI2281
aI3062
aI16226
aI230045
aI1151
aI2432
aI18609
aI163
aI2829
aI62167
aI1095
aI87440
aI498
aI261890
aI173922
aI3692
aI3853
aI2993
aI145
aa(lp1428
I0
aa(lp1429
I0
aI10833
aI56
aI783
aI665279
aI87543
aI7949
aa(lp1430
I0
aI9975
aI690
aI3403
aI302
aI901
aI163654
aa(lp1431
I0
aI38
aI33407
aI321
aI608764
aa(lp1432
I0
aI599
aa(lp1433
I0
aI3325
aI78636
aI65218
aI10314
aI14777
aI65272
aI27408
aI152828
aI271980
aI1800
aI1786566
aI121821
aI45652
aa(lp1434
I0
aa(lp1435
I0
aa(lp1436
I0
aa(lp1437
I0
aa(lp1438
I0
aI203
aI616595
aI1364330
aI691001
aa(lp1439
I0
aI1828
aI63
aI766
aI61
aI604327
aI29710
aa(lp1440
I0
aI608433
aa(lp1441
I0
aa(lp1442
I0
aa(lp1443
I0
aI616096
aI18344
aI59426
aI625303
aI145885
aI83360
aI1512
aI8941
aI279
aI1037
aI5252
aI241815
aI7868
aI1129
aI1035
aI19605
aI11441
aI49189
aa(lp1444
I0
aI27467
aI77491
aI65170
aI16853
aI98
aI668608
aI124216
aI74338
aI356103
aI89955
aI68
aI741775
aI166904
aI4266
aI366400
aa(lp1445
I0
aa(lp1446
I0
aI7125
aI90
aI56
aI315978
aI261173
aa(lp1447
I0
aa(lp1448
I0
aI24864
aI7757
aI403
aI128
aI63
aI571000
aI176565
aa(lp1449
I0
aI52342
aI39
aI69
aI637288
aI260646
aI417391
aa(lp1450
I0
aI395
aI75066
aI11023
aI58262
aI18159
aI62047
aI35678
aI152749
aI257025
aI22508
aI169855
aI142897
aI169156
aI1390919
aI75603
aa(lp1451
I0
aI52
aI609000
aI342900
aI4260
aI488858
aI90366
aI539296
aI336762
aI231991
aa(lp1452
I0
aI73408
aI65838
aI36036
aI1564
aI1064
aa(lp1453
I0
aI26127
aI591
aI77073
aI774084
aI102130
aa(lp1454
I0
aI3535
aI89
aI668650
aI189779
aI1264620
aI274040
aa(lp1455
I0
aI140
aI351
aI606413
aI72894
aI80085
aa(lp1456
I0
aI54237
aa(lp1457
I0
aI23233
aI846
aI578300
aI90017
aI881357
aI938513
aa(lp1458
I0
aa(lp1459
I0
aI68
aI496
aI245658
aI114
aI418510
aI92505
aa(lp1460
I0
aa(lp1461
I0
aI5059
aI120
aa(lp1462
I0
aI137
aI66618
aI11336
aI85
aI352
aI90045
aI75135
aI14961
aa(lp1463
I0
aI284
aI413714
aI502122
aI36140
aI60254
aI159912
aI4095
aa(lp1464
I0
aI162
aI2998
aI2668
aI8159
aI386
aI55415
aI19860
aa(lp1465
I0
aI209
aI475
aa(lp1466
I0
aa(lp1467
I0
aa(lp1468
I0
aI31600
aI1604
aI58341
aI189
aI27128
aI22
aI680355
aI64700
aI269618
aa(lp1469
I0
aa(lp1470
I0
aa(lp1471
I0
aa(lp1472
I0
aI1834
aa(lp1473
I0
aI14201
aI49444
aI483
aI636858
aI226828
aI277113
aI12852
aI338
aI84025
aI55396
aI3591
aI3599
aI9221
aI16380
aI55265
aI83903
aI6008
aI1804
aI3430
aI7264
aI6980
aI234729
aI18017
aI1237
aI2480
aI1887
aI62489
aI19176
aI1611
aI522
aI100263
aa(lp1474
I0
aI33798
aI48960
aI19058
aI66134
aI30546
aa(lp1475
I0
aI13142
aa(lp1476
I0
aa(lp1477
I0
aI9687
aI670375
aI1970956
aa(lp1478
I0
aI603158
aI24
aI6877
aI4839
aI343649
aI4235
aI73906
aI355990
aI149752
aI354537
aI89641
aI254398
aI158573
aI2968
aI248085
aa(lp1479
I0
aI1177
aI605963
aI1998242
aI44794
aa(lp1480
I0
aI523226
aI94402
aI16350
aI50601
aI3926
aI2515
aI3084
aI9939
aI76716
aI772
aI3965
aI1124
aa(lp1481
I0
aa(lp1482
I0
aa(lp1483
I0
aI87707
aa(lp1484
I0
aI1672
aa(lp1485
I0
aI1342
aI1358
aI607203
aI55111
aI79687
aa(lp1486
I0
aI3860
aI54209
aI75
aI637403
aI224599
aI280827
aa(lp1487
I0
aI1134
aI177
aI149
aI67
aI1305
aI497
aI608335
aI259014
aI72074
aI348721
aI167871
aI768230
aI168047
aI139
aI706797
aa(lp1488
I0
aa(lp1489
I0
aI530
aI47
aI132
aI609256
aI343689
aI845502
aI337233
aI251045
aa(lp1490
I0
aI609603
aI56897
aI78267
aI676
aI967
aI23576
aI8973
aI58336
aI27757
aI50222
aI4336
aI42
aI14650
aI76
aI997
aa(lp1491
I0
aI180
aI609158
aI54450
aI87238
aa(lp1492
I0
aI59
aI607802
aI599299
aI318936
aI274946
aa(lp1493
I0
aI659
aI599
aI133
aI259
aI606459
aI267
aI341337
aI312009
aI11056
aI77049
aI5730
aI7528
aI2156
aI636
aI1201
aI3249
aI731
aI64
aa(lp1494
I0
aI181
aI248800
aI359556
aI341191
aI73586
aI352148
aI81544
aI320216
aI295077
aI335833
aI91653
aI1767
aI139338
aa(lp1495
I0
aI74444
aI63
aI593356
aI1970983
aa(lp1496
I0
aI29930
aI1134
aI85396
aa(lp1497
I0
aI518304
aI102480
aI12540
aI976
aI49024
aI14815
aI10945
aI71188
aI6660
aa(lp1498
I0
aI135
aI85
aI162
aI38
aI606555
aI150
aI46394
aI6194
aI705359
aI50
aI3853
aI747
aa(lp1499
I0
aa(lp1500
I0
aI34014
aI210671
aI441098
aI601499
aI232893
aI31422
aa(lp1501
I0
aI54940
aI9579
aI92
aI591147
aI95889
aI7574
aI148487
aI4520
aI106
aI1275
aI37683
aI63912
aI153195
aI17159
aI5572
aI79
aI90
aa(lp1502
I0
aI6270
aa(lp1503
I0
aa(lp1504
I0
aI1670
aI22576
aI19008
aI46644
aI31863
aI157
aI1530
aI3058
aI292
aI16
aI747
aI227306
aI450198
aI14508
aI72098
aI327075
aI83394
aa(lp1505
I0
aa(lp1506
I0
aI27495
aI676242
aI93522
aa(lp1507
I0
aI34139
aa(lp1508
I0
aI80751
aI20587
aI65796
aI30474
aI61756
aI85889
aI185022
aI88003
aI19669
aI647
aa(lp1509
I0
aI19490
aI66026
aI35581
aI62190
aI21588
aI163448
aa(lp1510
I0
aI23420
aI684700
aI5248
aa(lp1511
I0
aa(lp1512
I0
aI632252
aI53882
aI615989
aI7728
aI1628
aI59278
aI87346
aI8278
aa(lp1513
I0
aI25289
aI59419
aI646533
aI123
aI69
aI578544
aI74202
aI231
aI1562069
aa(lp1514
I0
aI2902
aI263068
aI266473
aa(lp1515
I0
aI4578
aI873
aI4471
aI128
aI514267
aI164148
aa(lp1516
I0
aI405
aI130
aI2404
aI1303
aI11523
aI8350
aI500950
aI180770
aI534
aI847
aI3135
aI3868
aI254
aa(lp1517
I0
aI1202
aI11658
aI512849
aI162057
aa(lp1518
I0
aI43
aI12307
aI625417
aI1576
aI289
aI16
aI48452
aI178605
aI11591
aI1246
aI82124
aI176578
aI2642
aa(lp1519
I0
aI586240
aI83294
aI3693
aI196
aI7255
aa(lp1520
I0
aI22
aI606250
aI82246
aI4174
aI256
aI9
aI630
aI942
aI425521
aI101243
aI18669
aI59871
aI94460
aI14270
aI59352
aI2300
aI13322
aI18904
aI55310
aI170484
aI35586
aI80733
aI53288
aI35872
aI62434
aI4099
aI332240
aI10825
aI12690
aI66918
aI28628
aI57435
aI19619
aI81595
aI12320
aI71679
aI263387
aI56713
aI14237
aI1079
aI26237
aI3058
aI63587
aa(lp1521
I0
aI628595
aI608853
aI1431944
aa(lp1522
I0
aI78
aI7533
aI697944
aI3699
aI61845
aI2507
aI7024
aI22245
aI6889
aI49006
aI602926
aa(lp1523
I0
aI633656
aI168308
aI89109
aI1536320
aI183698
aI57616
aa(lp1524
I0
aI5643
aI72418
aI32986
aI80
aI661110
aI122883
aI417189
aI88358
aI1355750
aa(lp1525
I0
aI201
aI15571
aI13538
aI346
aI118
aI165
aI683496
aI70083
aI76028
aI276982
aa(lp1526
I0
aI40
aI636339
aI747622
aI11392
aI424161
aI165162
aa(lp1527
I0
aI98
aI164748
aI347352
aI8187
aI78757
aa(lp1528
I0
aI29662
aa(lp1529
I0
aI221
aI636765
aI744723
aI17689
aa(lp1530
I0
aI19091
aI760145
aI601189
aI30807
aa(lp1531
I0
aI546
aa(lp1532
I0
aI1349
aI27208
aI49365
aI128
aI633723
aI55109
aI89901
aa(lp1533
I0
aa(lp1534
I0
aI458
aI631672
aI220136
aI273753
aI17998
aI6073
aI66057
aI4748
aa(lp1535
I0
aa(lp1536
I0
aI63123
aI25495
aI69176
aI620488
aI101199
aI321835
aI174238
aI103066
aI314427
aI12842
aI492
aI16354
aI53557
aI23066
aI79864
aI20670
aI74828
aI64751
aI21180
aI166272
aI66617
aI7416
aI1503
aI929
aI4357
aI74401
aI83
aI490
aI2642
aI1549
aI581
aI937
aa(lp1537
I0
aI678647
aa(lp1538
I0
aI115
aI665502
aI7483
aI155472
aI278520
aI2091
aa(lp1539
I0
aI1231
aI13675
aI56608
aI17672
aI11829
aI178
aI588857
aI89663
aa(lp1540
I0
aa(lp1541
I0
aI66716
aI3432
aI18936
aa(lp1542
I0
aI107
aI66
aI50
aI686474
aI4341
aI453051
aI223296
aI91552
aa(lp1543
I0
aI57224
aI178
aI624335
aI6277
aI53351
aI3921
aI5455
aI3212
aI6891
aa(lp1544
I0
aI671
aI599
aI571153
aI97202
aa(lp1545
I0
aI18
aI16497
aI48981
aI550842
aI1954058
aI19526
aI67196
aa(lp1546
I0
aa(lp1547
I0
aa(lp1548
I0
aI895
aa(lp1549
I0
aa(lp1550
I0
aI3500
aI9118
aa(lp1551
I0
aI61474
aI34743
aI67664
aI22752
aI146668
aI273142
aI11234
aI297
aI169417
aI160197
aI1556165
aI1433
aI146900
aa(lp1552
I0
aa(lp1553
I0
aI3632
aa(lp1554
I0
aI70343
aa(lp1555
I0
aI50024
aI18853
aI72740
aI172815
aI124
aI622485
aI500516
aI257207
aa(lp1556
I0
aa(lp1557
I0
aI55
aI54779
aI17006
aI2699
aI2790
aa(lp1558
I0
aI144
aI47
aI84
aI516949
aI84465
aI89251
aI81818
aI7497
aI56319
aI98369
aI165941
aI7925
aI1378
aI763
aI87293
aI6116
aI183798
aI72685
aI17301
aI56057
aI16397
aI157333
aI109054
aI53976
aI21314
aI16616
aI52756
aI452719
aI80260
aI5145
aI85539
aa(lp1559
I0
aI159
aI572207
aI105184
aI15273
aI171
aI572793
aI168864
aI9872
aI341708
aI6674
aa(lp1560
I0
aI570
aI691157
aI94085
aa(lp1561
I0
aI17112
aI78414
aI2505
aI3776
aI14255
aI5979
aa(lp1562
I0
aa(lp1563
I0
aI1010
aI304
aI859405
aI2009
aI320679
aI75998
aa(lp1564
I0
aI19989
aI65947
aI426
aI49
aI31047
aI175
aI2064
aI589329
aI108926
aI329920
aI16890
aI91
aI152910
aI15973
aI414124
aI336804
aI526752
aI17
aI18140
aI134630
aa(lp1565
I0
aI47
aI547139
aI86001
aI80423
aa(lp1566
I0
aI54558
aI17667
aI64694
aI5790
aI26528
aI60289
aI85125
aI2428
aI177565
aI423262
aI947080
aI613226
aI163611
aa(lp1567
I0
aI1730
aI107
aI46
aI66
aI624485
aI586784
aI119466
aI153977
aI440089
aI545
aa(lp1568
I0
aI11548
aI884
aI423520
aI96783
aI8154
aI62018
aI13541
aI83
aI23538
aI105
aI58
aI57412
aI5407
aI8040
aI2522
aI7840
aI3860
aI653583
aI4779
aI38
aI270407
aI7714
aI248162
aI8693
aI135
aI2542
aa(lp1569
I0
aI273464
aI81686
aa(lp1570
I0
aI520
aI153391
aI13735
aI53
aI157812
aI914
aI483
aI499253
aI19981
aI249
aI69542
aI2054
aI165079
aI14028
aI9759
aI9565
aI73
aI64936
aa(lp1571
I0
aI275
aI667253
aI13719
aI152112
aI252966
aI173121
aI11074
aa(lp1572
I0
aI616905
aI94235
aa(lp1573
I0
aI18511
aI91
aI612252
aI150800
aI12865
aI11416
aI250787
aI12137
aI73707
aI14810
aI55357
aI427
aI878
aI3033
aI1349
aa(lp1574
I0
aI17604
aI9032
aI243
aI662407
aI432731
aI15399
aI2309
aI71370
aI3403
aI9099
aI10977
aI56929
aa(lp1575
I0
aI16388
aI66052
aI38606
aI54471
aI31979
aI325753
aI19851
aa(lp1576
I0
aI2523
aI650
aI624588
aI2918
aI59278
aI88435
aI31144
aI1266
aI1506
aa(lp1577
I0
aa(lp1578
I0
aI1102
aI33026
aI439
aI583001
aI13654
aa(lp1579
I0
aI566
aI710827
aI13274
aI155107
aI328007
aI121721
aI412834
aI16633
aI325915
aI523194
aa(lp1580
I0
aa(lp1581
I0
aI167188
aI6849
aa(lp1582
I0
aI1000
aI80
aI252
aI57
aI297
aI8870
aI16901
aI6871
aI233
aI659995
aI110343
aI326121
aI92003
aa(lp1583
I0
aI8692
aa(lp1584
I0
aI12017
aI19856
aI4183
aI272
aI72926
aI11232
aI36
aI152383
aI265165
aI103373
aI175567
aI57481
aI429
aI620208
aI1011242
aI18854
aa(lp1585
I0
aI8954
aa(lp1586
I0
aI600
aa(lp1587
I0
aI371
aI602
aI432903
aI259602
aI90245
aI638
aI257346
aI99849
aa(lp1588
I0
aI3103
aI22172
aI46782
aI18596
aI606863
aI1593
aI510307
aI103444
aI326753
aI73876
aI2060
aa(lp1589
I0
aI525335
aI96214
aI1126482
aI595824
aI152995
aI172254
aa(lp1590
I0
aI2249
aI101
aI701642
aI361514
aI86335
aI146313
aI106176
aI438615
aI569034
aI173202
aa(lp1591
I0
aI12031
aI667216
aI124016
aI223240
aI32588
aa(lp1592
I0
aI14981
aI69208
aI15634
aI9508
aI56641
aI85556
aI286787
aI1955029
aI18635
aI16177
aI137171
aa(lp1593
I0
aa(lp1594
I0
aa(lp1595
I0
aa(lp1596
I0
aI3535
aI3936
aI428
aI53
aI515854
aI68949
aI3892
aa(lp1597
I0
aa(lp1598
I0
aI7537
aI755
aI63
aI668961
aI348717
aI89053
aI82722
aI142
aI79
aI111
aI282742
aI157547
aI92443
aI5289
aa(lp1599
I0
aa(lp1600
I0
aa(lp1601
I0
aa(lp1602
I0
aI4147
aI1255
aI257
aI657487
aI121868
aI74375
aI355955
aI89295
aI64725
aI244726
aI287385
aI530
aI349039
aI392
aI468
aI680260
aa(lp1603
I0
aI24454
aI58943
aI92797
aI596309
aI423337
aI96660
aI131
aI596796
aI430239
aa(lp1604
I0
aI3185
aI5353
aI62482
aI24634
aI1127
aI331091
aI282180
aI56843
aI15060
aI2620
aI79159
aI156792
aI12916
aa(lp1605
I0
aa(lp1606
I0
aI2659
aI5730
aa(lp1607
I0
aI956
aI10074
aa(lp1608
I0
aI138
aI252
aI667047
aI385126
aI47677
aI16880
aI112
aa(lp1609
I0
aI66380
aI27
aI363
aI462
aI1840
aI30045
aI4617
aI584380
aI610571
aI18593
aa(lp1610
I0
aI125
aI663862
aI1139042
aI845798
aa(lp1611
I0
aI160
aI87
aI624327
aI171551
aI222437
aI93609
aa(lp1612
I0
aI66232
aI23397
aI12497
aI57669
aI263737
aI85347
aI24220
aI78857
aI60437
aI5742
aI2085
aI21798
aI1011
aI8884
aI76017
aI4255
aI3122
aI3616
aI57048
aI619318
aI1025038
aa(lp1613
I0
aI5072
aa(lp1614
I0
aI484
aI2090
aI163894
aI242358
aI29
aI18426
aI179834
aI108
aI653
aI65612
aI2395
aI4230
aI2218
aa(lp1615
I0
aI4070
aI65153
aI150
aI11181
aI934
aI11876
aI520
aI586825
aa(lp1616
I0
aI695205
aa(lp1617
I0
aI621
aI60570
aI2892
aI29008
aI56578
aI19272
aI88
aI577
aa(lp1618
I0
aI5465
aI98
aI661080
aa(lp1619
I0
aI4016
aI212
aI99
aI237842
aI326
aI611186
aI245566
aI15735
aI15509
aI54032
aI1839
aI1623
aI1920
aI7066
aI34
aI69548
aI704
aI6319
aa(lp1620
I0
aa(lp1621
I0
aI617865
aI481859
aI13484
aI6698
aI2319
aa(lp1622
I0
aI893
aI659885
aa(lp1623
I0
aI251
aI63251
aI15320
aI1032
aI59341
aI104759
aI261945
aI80215
aI11071
aI15
aI97092
aI91152
aI60067
aI615573
aI1183083
aa(lp1624
I0
aI118
aI59
aI665525
aI123604
aI73927
aI182
aI947
aI853739
aI505908
aI365590
aI61021
aa(lp1625
I0
aI63091
aI15359
aI2086
aI11529
aI151325
aI261290
aI102193
aI173973
aI59980
aI619617
aI1011419
aI18488
aI16142
aI1481
aI135681
aa(lp1626
I0
aI2389
aI92
aI598491
aI80903
aa(lp1627
I0
aI349
aI658870
aI36905
aI158247
aI356409
aa(lp1628
I0
aI3052
aa(lp1629
I0
aa(lp1630
I0
aI62021
aI15421
aI1964
aI62877
aI1969
aI84603
aI184650
aI106875
aI168220
aI1115
aI3054
aI57470
aa(lp1631
I0
aI231
aI612244
aI58772
aI599172
aI10572
aI695189
aa(lp1632
I0
aa(lp1633
I0
aI98
aa(lp1634
I0
aI33
aI61642
aI75017
aI276785
aI175792
aI159417
aI710109
aI1011284
aI87848
aI26505
aa(lp1635
I0
aI739
aI275
aI659908
aa(lp1636
I0
aa(lp1637
I0
aa(lp1638
I0
aI29
aI661329
aI24270
aI878
aI158144
aI329153
aI86192
aI99517
aI1232
aI1326
aI992
aI6173
aI235136
aa(lp1639
I0
aI725456
aI13529
aI714826
aI1112113
aI9133
aI62018
aa(lp1640
I0
aI593649
aI79383
aa(lp1641
I0
aI11686
aI115
aI59
aI611277
aI601426
aI21270
aI118
aI396672
aI20626
aI608
aI4383
aI927
aI92405
aI481189
aI32466
aI146677
aI3762
aI2185
aI342679
aI17589
aI72
aa(lp1642
I0
aI18561
aI1504
aI2116
aI73
aI9513
aI500281
aI100946
aI7899
aI56108
aI92276
aI155599
aI26728
aI10740
aa(lp1643
I0
aI18465
aI600796
aI19053
aI917229
aI90950
aa(lp1644
I0
aI15503
aI12052
aI56526
aI99448
aI259535
aI20194
aI208771
aI13440
aI88453
aa(lp1645
I0
aI500
aI90
aI11105
aI166
aI258
aI619355
aI101035
aI1776939
aI168576
aa(lp1646
I0
aI16357
aI66372
aI606083
aa(lp1647
I0
aI164
aI617024
aI106006
aI432308
aI144
aI47877
aI16269
aa(lp1648
I0
aI830
aa(lp1649
I0
aI11240
aI620261
aI100676
aI1272464
aI510619
aI9909
aI152671
aa(lp1650
I0
aa(lp1651
I0
aI12024
aI2140
aI323
aa(lp1652
I0
aa(lp1653
I0
aa(lp1654
I0
aI16169
aI11350
aI57490
aI84805
aI184882
aI108383
aI168932
aI141379
aI627048
aI1125474
aI5498
aa(lp1655
I0
aa(lp1656
I0
aI3163
aI605511
aI108
aa(lp1657
I0
aI14457
aI50
aI4623
aI2238
aI54720
aI21954
aI75092
aI169374
aI80981
aI31788
aI89161
aI175330
aI62697
aI157822
aI122012
aI83164
aI1092
aI1434351
aa(lp1658
I0
aI210
aI823
aI247
aI90
aI76
aI119
aI696348
aI26267
aI602071
aI290
aI350195
aa(lp1659
I0
aI5586
aI1560
aI538715
aI55143
aa(lp1660
I0
aI12756
aa(lp1661
I0
aI11217
aI6517
aI522637
aI56750
aa(lp1662
I0
aI14583
aI1925
aI63944
aI87622
aI892
aI77
aI6578
aI131
aI610995
aI604253
aI1447541
aa(lp1663
I0
aI39
aI3841
aa(lp1664
I0
aI599223
aI114223
aa(lp1665
I0
aI357
aI614297
aI112323
aI779
aI202
aI544
aa(lp1666
I0
aI153
aI608958
aI117522
aI417352
aI88270
aI307900
aI14355
aI287166
aI1913
aI335784
aI494808
aa(lp1667
I0
aI14757
aI12295
aI176
aI422978
aI234385
aa(lp1668
I0
aI2988
aI6546
aa(lp1669
I0
aI365
aI607627
aI114211
aa(lp1670
I0
aI12655
aI53390
aI21976
aI83432
aa(lp1671
I0
aI25
aI436
aI66
aI4370
aI598842
aI285
aI68366
aI266682
aI1406
aI21248
aI57473
aI80950
aI5970
aI4115
aI868
aI1519
aI19937
aI60422
aI159
aI3500
aa(lp1672
I0
aa(lp1673
I0
aI8659
aI779
aI334
aI76235
aa(lp1674
I0
aI777
aI607530
aI24350
aI1978971
aI59992
aa(lp1675
I0
aI15823
aI2147
aI14
aI62642
aI86261
aI179396
aI107479
aa(lp1676
I0
aI14612
aI213
aI588470
aI109283
aI73243
aI356079
aI149686
aI77398
aI443401
aI13073
aI44
aI40
aa(lp1677
I0
aI1007
aI14700
aI35
aI605
aI580768
aI91844
aI2187
aI13660
aI328344
aI13901
aI95441
aI70882
aI60
aI5910
aI67184
aa(lp1678
I0
aI536810
aI62941
aI987
aI10174
aI4512
aI510
aI2877
aI57151
aI2938
aa(lp1679
I0
aI15318
aI53991
aI7209
aa(lp1680
I0
aa(lp1681
I0
aI424
aI1022
aI73
aI184
aI23
aI605183
aI26357
aI155943
aI350436
aI598228
aI625780
aI303766
aa(lp1682
I0
aI318
aI607624
aI498970
aI104606
aI5625
aI913
aI29
aI271
aI6395
aI3224
aI134
aI3181
aI581667
aI71364
aa(lp1683
I0
aI1561
aI8967
aI602101
aa(lp1684
I0
aa(lp1685
I0
aI644
aI85525
aI992
aI83733
aI173068
aI68491
aI31926
aI89165
aI175317
aI57550
aI620537
aI1125436
aI144106
aa(lp1686
I0
aI383
aI351
aI3893
aI1163
aI361519
aI118
aI600029
aI669000
aI193938
aI416305
aI255386
aI85
aI515
aI7409
aI887
aI1448
aI67589
aI2240
aa(lp1687
I0
aI12
aI146
aa(lp1688
I0
aI746
aa(lp1689
I0
aa(lp1690
I0
aa(lp1691
I0
aI121
aI2238
aI3209
aI606
aI316
aI321559
aI607349
aI81310
aa(lp1692
I0
aI2584
aI1548
aI44
aI91
aI4739
aI598705
aI367340
aI86138
aI146407
aI106125
aI494096
aa(lp1693
I0
aI585722
aI603925
aI6631
aI711522
aI531062
aI142601
aI3572
aa(lp1694
I0
aI493
aI3678
aa(lp1695
I0
aI4951
aI12158
aI57547
aI84944
aI184801
aI106850
aI170375
aI141338
aI627173
aI1125475
aI68387
aI2262
aI333
aI73077
aa(lp1696
I0
aI24
aI608939
aI69195
aI261412
aI18292
aI5540
aI2947
aI81490
aI58996
aI24092
aI69385
aI1105
aI2364
aI12913
aI594722
aI376
aI78802
aI8922
aI23640
aI71297
aI149256
aI153
aI92566
aI253156
aI3414
aI583
aI19668
aI609
aa(lp1697
I0
aI11119
aI59072
aI97
aI605743
aI425147
aI38914
aI739600
aI365306
aa(lp1698
I0
aa(lp1699
I0
aa(lp1700
I0
aI1468
aI599024
aI22668
aI153402
aI350787
aI69
aI87046
aa(lp1701
I0
aI25
aI609
aI1327
aI344
aI425726
aI241610
aI273028
aa(lp1702
I0
aI41
aI595000
aI108659
aI309637
aI734
aa(lp1703
I0
aI624
aI9709
aI64
aI1324
aI583716
aI110257
aa(lp1704
I0
aa(lp1705
I0
aI11257
aI27533
aI5217
aa(lp1706
I0
aI309
aI10240
aI27
aI49721
aI1523
aI607925
aI427205
aI127175
aI328167
aa(lp1707
I0
aa(lp1708
I0
aI33
aI62631
aI16657
aI75108
aI180463
aI2308
aI37
aI473
aI4082
aI1539
aI2117
aI321
aI75617
aI22367
aI70716
aI97503
aI151519
aI2646
aI1737977
aI144231
aa(lp1709
I0
aa(lp1710
I0
aI56
aI191
aI81
aI3003
aI514516
aI61110
aI4909
aI538
aI76926
aI1406
aI35
aI8846
aI5963
aI9492
aI164
aa(lp1711
I0
aa(lp1712
I0
aa(lp1713
I0
aa(lp1714
I0
aI393914
aI208
aI6919
aI515191
aI90203
aI82796
aI120113
aI46876
aa(lp1715
I0
aa(lp1716
I0
aa(lp1717
I0
aI2553
aI385
aI574506
aI29275
aI157968
aI356515
aI110
aI1287027
aa(lp1718
I0
aI1323
aI78274
aI67193
aI185643
aI70807
aI128
aI627907
aa(lp1719
I0
aa(lp1720
I0
aI2110
aI2228
aI3488
aI16273
aI81963
aI270345
aI142281
aI25475
aI530553
aI55771
aI1202541
aI98543
aI159779
aa(lp1721
I0
aI5115
aI1461
aI1482
aI251486
aI6548
aI6244
aa(lp1722
I0
aI291
aI608311
aI357653
aI107381
aI89270
aI58772
aI8413
aI132
aI1109
aI834
aI360037
aI232
aI1084465
aa(lp1723
I0
aI7491
aI9744
aI76439
aI171
aI621782
aI419537
aI106218
aI437361
aI55580
aI359733
aI361461
aI306015
aa(lp1724
I0
aa(lp1725
I0
aI1307
aa(lp1726
I0
aI918
aI6414
aa(lp1727
I0
aI14885
aI71244
aa(lp1728
I0
aI4712
aI29863
aI335
aI31
aI425
aI234192
aI7339
aI8641
aI2302564
aa(lp1729
I0
aI12330
aI40
aI596066
aI338892
aI9278
aa(lp1730
I0
aa(lp1731
I0
aa(lp1732
I0
aI4616
aI601644
aa(lp1733
I0
aI3531
aI15478
aI14759
aI585942
aI414009
aI126742
aI65384
aI1053323
aI394893
aa(lp1734
I0
aI4046
aI16786
aI124
aI141
aI45
aI422
aI11598
aI116
aI143
aI593139
aI8574
aI419400
aI89641
aI1134738
aI173238
aI221788
aa(lp1735
I0
aI162
aI444300
aI91183
aI2466
aI3153
aI2882
aI383
aI557
aI4760
aa(lp1736
I0
aI19045
aI437476
aI53326
aI13351
aI1251
aI11193
aI1717
aI7159
aI5970
aa(lp1737
I0
aI458081
aI66826
aa(lp1738
I0
aI747
aI287
aa(lp1739
I0
aa(lp1740
I0
aI923
aI83549
aa(lp1741
I0
aI6462
aI79531
aI270600
aI89134
aI101350
aI1127
aI1231
aI51294
aI87718
aI874305
aa(lp1742
I0
aI44
aI205
aI13327
aI19072
aI58435
aI530653
aI79947
aI153867
aI4841
aI16773
aI486
aI83559
aI72716
aI24340
aI75707
aI12922
aI58880
aI13935
aI325
aI512603
aI95283
aI4329
aI235833
aI2152
aI88317
aa(lp1743
I0
aI348302
aI692130
aI143
aI74757
aI109243
aI1404
aI6950
aI56790
aI12608
aI1671
aI326210
aI86910
aI4272
aI15
aI2897
aa(lp1744
I0
aI81643
aI4680
aI3312
aa(lp1745
I0
aa(lp1746
I0
aI42
aI19896
aI578
aI1966
aI76
aI129
aI45
aI301
aI581707
aI16919
aI594235
aa(lp1747
I0
aI599780
aI424461
aI176462
aI264205
aI1765
aa(lp1748
I0
aI601272
aa(lp1749
I0
aI79387
aI181023
aa(lp1750
I0
aa(lp1751
I0
aa(lp1752
I0
aI896
aI588692
aI421768
aI33553
aa(lp1753
I0
aI238112
aI633686
aI90048
aI146261
aI106180
aI437765
aI25
aI428892
aa(lp1754
I0
aI12354
aI1939
aI228740
aI7670
aI14962
aI11999
aI2843
aI382
aI601420
aI90826
aI143376
aI5751
aI103678
aI438919
aI848639
aa(lp1755
I0
aI933
aI2344
aI3891
aI8442
aI340
aI415810
aI605059
aI189472
aI435869
aI1797
aI51468
aI352481
aI993
aa(lp1756
I0
aI62585
aI169635
aI19843
aI604857
aI153653
aI174370
aI1051
aI1231
aI10297
aI1951
aI6434
aI16041
aI1159
aI57961
aI257305
aI13308
aI1644
aI58292
aa(lp1757
I0
aI77558
aa(lp1758
I0
aI2036
aI316
aI1513
aI256024
aI244965
aI78555
aI5691
aI3004
aI2596
aI27932
aI543
aI484356
aI81957
aI45
aI519739
aI619
aI11589
aI424620
aI12455
aI2323
aI3485
aI15383
aI65318
aI67932
aa(lp1759
I0
aI234
aI585139
aI605588
aI566
aI275517
aI18826
aI49977
aI7796
aa(lp1760
I0
aI1236
aa(lp1761
I0
aa(lp1762
I0
aI52
aI61
aI85
aI66038
aI891
aI1513
aI362
aI223
aI621104
aI351096
aI1346
aI154130
aI456811
aI404772
aI250754
aI440692
aI1230
aa(lp1763
I0
aI73864
aI174105
aI84824
aI23372
aI89066
aI175035
aI60300
aI183527
aI672287
aI11519
aI1123
aI7892
aI7923
aI57092
aI1993
aI2682
aI423
aa(lp1764
I0
aI592201
aI2205
aa(lp1765
I0
aa(lp1766
I0
aI5519
aI8801
aI568899
aI38516
aI59051
aI158879
aI2880
aI18802
aa(lp1767
I0
aI11893
aI223077
aI30891
aI907
aI2713
aa(lp1768
I0
aI575
aI320564
aI116
aI682
aI634462
aI501217
aI11319
aI1690
aI70600
aI3560
aI6134
aI47
aI75387
aI6958
aa(lp1769
I0
aI12355
aI70
aI64
aI584400
aI594650
aI258742
aI75133
aI75
aI4539
aI32400
aI53912
aI22443
aI6306
aI72893
aI333796
aI79917
aI8348
aI1112
aI87358
aI16
aI16814
aI5795
aI1707
aI67444
aI10065
aI65333
aa(lp1770
I0
aa(lp1771
I0
aI9539
aI59266
aI101
aI404
aI507
aI622507
aI233676
aI15414
aa(lp1772
I0
aI93
aI513337
aI104890
aI838498
aI80012
aI31639
aI33
aI108
aI53607
aI2316
aI554
aI92846
aI82299
aI248393
aI6431
aI95
aI81613
aI342
aI237
aI3253
aI153
aa(lp1773
I0
aI63299
aI172641
aa(lp1774
I0
aI293
aI3165
aI188
aI59942
aI12846
aI779
aI227
aI502163
aI269774
aa(lp1775
I0
aI79340
aI153616
aa(lp1776
I0
aI11665
aI223573
aI21842
aI7083
aI1911
aI2521
aI91829
aI44614
aI4272
aI522772
aI85537
aI1482
aI10159
aI29
aI318
aI843
aI5257
aI9017
aI52506
aI1536
aI683
aI287
aI821
aI202
aa(lp1777
I0
aa(lp1778
I0
aa(lp1779
I0
aI180990
aI870152
aI1213424
aI92
aa(lp1780
I0
aI61461
aa(lp1781
I0
aI4699
aI6805
aa(lp1782
I0
aI1339
aI609397
aI233388
aI24351
aI67642
aI3119
aI1783
aI12392
aI1850
aI165828
aI8115
aI234363
aI17971
aI814
aI6538
aI58746
aI980
aa(lp1783
I0
aI29
aI67038
aI179259
aI80273
aI24340
aI168304
aI155229
aI193748
aI57698
aI88003
aI4560
aI27156
aI80896
aI52012
aI2617
aI1150
aI2219
aa(lp1784
I0
aI1008
aa(lp1785
I0
aI8007
aI583557
aI593575
aI347529
aI166843
aI5084
aI4098
aI17993
aI53036
aI14060
aI7137
aI241070
aa(lp1786
I0
aI96
aI397
aI157
aI380
aI582119
aI22698
aI580209
aI14884
aI291
aI242440
aI7513
aI3462
aI18460
aI83700
aI53551
aI86609
aI12863
aI71
aa(lp1787
I0
aI165
aI573646
aI262334
aI1286
aa(lp1788
I0
aI265
aI987
aI572710
aI10383
aI81128
aI163623
aa(lp1789
I0
aI2137
aI384
aI40
aI1838
aI55
aI53027
aa(lp1790
I0
aa(lp1791
I0
aI10036
aI18991
aI19261
aI964
aI2626
aI74997
aI9650
aI420
aI118
aI1324
aI46
aI659575
aI4805
aI14600
aI1831
aI4455
aI93178
aI65219
aI66
aI349587
aI12685
aI67036
aI262336
aI517938
aa(lp1792
I0
aa(lp1793
I0
aa(lp1794
I0
aa(lp1795
I0
aI584277
aI353607
aI61425
aI96246
aI164
aI8173
aI3997
aI441074
aI63288
aI5871
aa(lp1796
I0
aI47122
aI17897
aI155751
aI21237
aI12379
aI1128
aI68273
aI85269
aI103505
aI141315
aI290674
aI69182
aI1622350
aa(lp1797
I0
aI86
aI585085
aa(lp1798
I0
aI2635
aI270
aI182463
aI81602
aI626243
aI149782
aI30341
aI66247
aa(lp1799
I0
aI480
aI174
aI216
aI252483
aa(lp1800
I0
aa(lp1801
I0
aI144
aI1360
aI489
aa(lp1802
I0
aa(lp1803
I0
aI1805
aa(lp1804
I0
aI4602
aI662
aI181014
aI612285
aI147496
aI102852
aI334629
aI90426
aI6113
aI496
aI4358
aI80
aI165543
aI590151
aI1079
aI26253
aI220
aI4440
aI1414
aI772
aa(lp1805
I0
aI602398
aI1124
aI166817
aI102404
aI2789
aa(lp1806
I0
aI5599
aI165935
aI68405
aa(lp1807
I0
aI86
aa(lp1808
I0
aa(lp1809
I0
aI3707
aa(lp1810
I0
aa(lp1811
I0
aI15202
aI154767
aI8310
aI15252
aI611256
aI162241
aI591660
aI80803
aI35975
aI47169
aI2981
aI790
aI13663
aI6138
aI13388
aI1493
aI228435
aI2213
aI9087
aI148
aI1196
aI5957
aa(lp1812
I0
aa(lp1813
I0
aI162
aI171091
aI76
aI106
aI621970
aI1047
aI65369
aI14782
aa(lp1814
I0
aI105
aa(lp1815
I0
aI610
aI497
aI622126
aI327373
aI171211
aI10583
aI98070
aI157304
aI32296
aI72058
aI56201
aa(lp1816
I0
aI1543
aa(lp1817
I0
aa(lp1818
I0
aI4731
aI181041
aI80682
aI24419
aI167381
aI1796
aI3602
aI54020
aI5938
aI6032
aI7945
aI65018
aI627388
aI175845
aI1292
aI318856
aI278230
aI15463
aI1877
aI55680
aI794
aa(lp1819
I0
aI1083
aa(lp1820
I0
aI164451
aI7092
aa(lp1821
I0
aI21275
aI76387
aI85983
aI14287
aI99265
aI135314
aI291070
aI1778041
aa(lp1822
I0
aa(lp1823
I0
aI784807
aI176865
aI11383
aI3713
aI81031
aI1446
aI1606641
aa(lp1824
I0
aI76
aI529251
aa(lp1825
I0
aI6098
aI14911
aI13948
aa(lp1826
I0
aI519018
aI1527303
aI547974
aI67640
aa(lp1827
I0
aa(lp1828
I0
aI158530
aI15129
aI106
aI611243
aI101977
aI152919
aI100718
aa(lp1829
I0
aI435505
aI173331
aI446352
aI346626
aI254493
aI332306
aI82631
aI233644
aa(lp1830
I0
aI1462
aI607303
aI519967
aI235652
aI14107
aI8720
aI2401
aI1513
aI62842
aa(lp1831
I0
aa(lp1832
I0
aI109
aI2065
aI58
aI600292
aI80791
aa(lp1833
I0
aI130
aI620083
aI594
aI104792
aI154599
aI99486
aI1003595
aI442336
aI76276
aI105
aa(lp1834
I0
aa(lp1835
I0
aI31
aI2340
aI112
aI620866
aI555
aI938
aI1603
aa(lp1836
I0
aI150332
aI28467
aI932
aI434
aI1656
aI83
aI489
aI603910
aI91309
aI81522
aI91370
aI64353
aI350237
aI333776
aI527653
aa(lp1837
I0
aI7127
aI84482
aI24209
aI89335
aI90981
aI49434
aI32966
aI58760
aI2352
aI282513
aI67472
aI1653343
aI57527
aa(lp1838
I0
aa(lp1839
I0
aI36056
aI64533
aI8608
aI2158
aI141
aI6147
aI301
aI668
aI577256
aI82366
aa(lp1840
I0
aI7016
aI20020
aI934
aI591
aI66539
aI223
aI249064
aI279947
aI10538
aI1568
aI49341
aI18
aI27884
aI357
aI54651
aI2490
aa(lp1841
I0
aa(lp1842
I0
aa(lp1843
I0
aI15056
aI79761
aI82502
aa(lp1844
I0
aa(lp1845
I0
aI342971
aI270326
aI17292
aI514
aa(lp1846
I0
aI24
aI17092
aI20
aI81781
aI24513
aI84070
aI587303
aI93436
aI101610
aI230109
aI92847
aI340036
aI526888
aa(lp1847
I0
aa(lp1848
I0
aI18164
aI75022
aI630867
aI150757
aI30570
aI65320
aI349426
aI334078
aI149
aI777707
aa(lp1849
I0
aI5324
aI82472
aI24564
aI53183
aa(lp1850
I0
aI73
aI340603
aI16928
aa(lp1851
I0
aI85376
aI20
aI24241
aI71845
aI102933
aI140607
aI263981
aI15469
aI1789736
aa(lp1852
I0
aI19121
aI57
aI93
aI611339
aI61330
aI94857
aa(lp1853
I0
aI77084
aI102494
aI89766
aI77062
aI11141
aI14476
aI69308
aI152947
aI124551
aI64863
aI68650
aI1584030
aI84779
aI59056
aa(lp1854
I0
aI2181
aI9
aI406
aI876
aI1549
aI155773
aI521923
aI168753
aI5537
aI5824
aI6158
aI1677
aI8608
aI161
aI56379
aI17614
aI322
aI8386
aa(lp1855
I0
aI85364
aI24252
aI53192
aI404
aa(lp1856
I0
aI14743
aI78487
aI22
aI81828
aI15
aI14495
aI5860
aI639
aI586413
aI16541
aI411770
aI75734
aI1483
aI32019
aI45725
aI1900
aI3021
aa(lp1857
I0
aI18531
aa(lp1858
I0
aa(lp1859
I0
aI9294
aI884
aI10735
aI58
aI133
aI610899
aI66638
aI88304
aI536
aI161
aI9691
aI123
aI8237
aI162966
aI240346
aI12443
aI245
aI85583
aI586
aI9656
aI11763
aI143195
aI17196
aI1806
aa(lp1860
I0
aI305
aI616300
aI104219
aI152891
aI415207
aI6701
aI7443
aI102804
aI67523
aI6932
aI80065
aI3530
aa(lp1861
I0
aI8259
aI8779
aI608811
aI591126
aI21396
aI346
aI1180009
aI19751
aI53549
aa(lp1862
I0
aI85398
aI24200
aI74199
aI84115
aI91
aI11974
aI17
aI56139
aI470
aI352
aI27766
aI1320
aI6251
aI58431
aI620956
aI1395703
aI72623
aI60370
aa(lp1863
I0
aI120
aI32619
aI904
aI3266
aa(lp1864
I0
aI615856
aI103810
aI147730
aI765600
aI173021
aI249070
aa(lp1865
I0
aI94046
aI16553
aI1138
aI244283
aI1791066
aa(lp1866
I0
aI20440
aI4057
aI345631
aI23
aI206
aI581654
aI271984
aI20558
aI51590
aI5665
aa(lp1867
I0
aI19260
aI5691
aI151
aI609090
aI58919
aI4759
aI15687
aI69476
aI11522
aI63223
aI5383
aI310
aI3685
aI8878
aI5920
aI6850
aI6866
aI2033
aI52771
aI11591
aa(lp1868
I0
aa(lp1869
I0
aI10276
aa(lp1870
I0
aI216
aI48
aI130
aI614043
aI170019
aI105089
aI50131
aI1841
aI257379
aI283
aI21601
aI942
aI57253
aI35910
aI55544
aI631
aI886
aI4659
aI1150
aI288
aa(lp1871
I0
aI18801
aI1299
aI92
aI442
aI1537
aI603396
aa(lp1872
I0
aI21430
aa(lp1873
I0
aI82751
aI24827
aI137263
aI5675
aI18627
aI101604
aI62130
aI157453
aI124495
aI64837
aI23166
aI59888
aI184035
aI152984
aI799096
aI589996
aI347
aa(lp1874
I0
aI2179
aI612168
aI621010
aI139
aI71731
aI78746
aI421282
aI780959
aa(lp1875
I0
aa(lp1876
I0
aI627335
aa(lp1877
I0
aI17793
aI2388
aI157
aI610941
aI481
aI684602
aI1710
aI2492
aI8077
aI2016
aI48926
aa(lp1878
I0
aI19937
aI1786
aI237
aI129
aI605881
aI61157
aI79435
aI6196
aI296
aI988
aI1414
aI7808
aI2777
aI453
aI990
aI1337
aI10494
aI129
aI406476
aI117
aI3003
aI20469
aI228968
aI3617
aa(lp1879
I0
aI616482
aI622715
aI290
aI255728
aI157688
aI186085
aI1039
aI81876
aI4440
aI57
aI69827
aI18489
aI578362
aa(lp1880
I0
aI20156
aI1191
aI6862
aI1931
aI67
aI73
aI576739
aI83456
aI25
aI89742
aI1988
aI80856
aI5829
aI13008
aI1346
aa(lp1881
I0
aa(lp1882
I0
aI20552
aI11716
aI787
aI1044
aI102
aI47
aI607230
aI160686
aI372
aI872
aI1204
aI477
aI323
aI90406
aI60
aI51
aI576484
aI343236
aI72386
aI11208
aI291
aI25417
aI58629
aI8225
aI17660
aI60850
aI27
aI37810
aI51988
aI14474
aI3071
aa(lp1883
I0
aI20297
aI2091
aI69374
aI1542
aa(lp1884
I0
aI85136
aI23126
aI72587
aI102270
aI1260
aI59054
aI83739
aI283488
aI66190
aI1904
aI28248
aI1697610
aI74795
aa(lp1885
I0
aI20794
aI72609
aI4029
aI6787
aI621552
aI147528
aI685980
aI349916
aI2545
aI7281
aI476
aI383
aI220
aI20319
aI2561
aI67987
aI60810
aI2408
aI1046
aI175178
aI172507
aI19790
aa(lp1886
I0
aI21196
aa(lp1887
I0
aa(lp1888
I0
aI21671
aI187
aI609515
aI595881
aI276177
aI608115
aI501830
aI126
aa(lp1889
I0
aI16782
aI1278
aI124
aI604516
aI78236
aI686163
aI159443
aI334159
aa(lp1890
I0
aI612758
aI621189
aI157612
aI46
aI94920
aI87757
aI259581
aI665825
aa(lp1891
I0
aI8933
aI38
aI611132
aI592384
aI275247
aI336116
aI342690
aI329145
aa(lp1892
I0
aI2634
aI100
aI57584
aI25675
aI1098
aI107
aI611632
aI234043
aI26388
aI224761
aI80102
aI558
aa(lp1893
I0
aa(lp1894
I0
aI20184
aI4623
aI212
aI246273
aI1985
aI7479
aI3453
aI496
aI65457
aI4910
aI3131
aI490
aa(lp1895
I0
aa(lp1896
I0
aI21253
aI77730
aI100162
aI489414
aI16206
aI355172
aI255812
aI105108
aI564749
aI603813
aa(lp1897
I0
aa(lp1898
I0
aa(lp1899
I0
aa(lp1900
I0
aI13319
aa(lp1901
I0
aI512
aa(lp1902
I0
aI1532
aa(lp1903
I0
aI625
aI1540
aa(lp1904
I0
aI17100
aI173
aI56
aI106
aI608528
aI167475
aI16402
aI831779
aI340036
aI523822
aI13768
aI432
aI946
aI5626
aI55851
aa(lp1905
I0
aa(lp1906
I0
aa(lp1907
I0
aa(lp1908
I0
aI601148
aI1275757
aI701044
aa(lp1909
I0
aI338525
aI272085
aa(lp1910
I0
aI37
aI39
aI616730
aI90092
aI14884
aI154363
aI330424
aI88873
aI3251
aI1771
aI1319
aI4917
aI60396
aI1679
aI2744
aI1815
aI187
aI2840
aI95637
aI77866
aI1051203
aI26
aa(lp1911
I0
aI128
aI242933
aa(lp1912
I0
aI78058
aI70919
aI618929
aI1802049
aa(lp1913
I0
aI7863
aI221
aI607074
aI590133
aI434657
aI237089
aa(lp1914
I0
aI3848
aa(lp1915
I0
aI49
aI4331
aI331988
aI268876
aI21457
aI3722
aI69238
aI150640
aa(lp1916
I0
aI9596
aI609064
aI65887
aI171034
aI344381
aI14895
aI71226
aI31192
aI52773
aI22290
aI12617
aI50900
aI2340
aI10967
aI7339
aI2260
aI60288
aI11757
aI6188
aI72847
aI6105
aI992
aI160406
aa(lp1917
I0
aI68075
aI79
aI194
aI633005
aI144801
aI709753
aI30
aI1874
aI326388
aI255749
aa(lp1918
I0
aI78947
aI98517
aI82248
aI103825
aI62006
aI177581
aI1967828
aa(lp1919
I0
aI1968
aI8640
aI2928
aa(lp1920
I0
aI10166
aI26367
aI497
aI581567
aI38759
aa(lp1921
I0
aI77689
aa(lp1922
I0
aI820
aI613072
aI268749
aI80
aI747315
aI174471
aI169734
aa(lp1923
I0
aI3277
aI542
aa(lp1924
I0
aI70150
aI105907
aI53616
aI17647
aI11665
aI6709
aI15963
aI65551
aI8928
aI7290
aI59817
aI6298
aa(lp1925
I0
aa(lp1926
I0
aI8424
aI10226
aI160
aI51690
aI30461
aI89930
aI135689
aa(lp1927
I0
aI6400
aI92
aI607479
aI93509
aI140210
aI604847
aI344129
aI261286
aI1423
aI1408
aI1648
aI352853
aI69534
aI9379
aI230
aI1256
aa(lp1928
I0
aI92219
aI506485
aI1968605
aa(lp1929
I0
aI69967
aI6940
aa(lp1930
I0
aI11
aI43
aI193
aI610560
aI592923
aI617899
aI264
aI501
aI403
aI104
aI269
aa(lp1931
I0
aa(lp1932
I0
aa(lp1933
I0
aI14587
aI144
aI600087
aI90534
aI143408
aI5797
aI103670
aI494089
aI357897
aI362812
aI361
aa(lp1934
I0
aI5995
aI694
aI80
aI476
aI606263
aI590044
aI432862
aI518424
aa(lp1935
I0
aI13599
aI17377
aI57813
aI618912
aI607351
aa(lp1936
I0
aa(lp1937
I0
aI608037
aI79302
aI14703
aI146456
aI89239
aI436707
aI15219
aI1007
aI241697
aI415823
aI430511
aI396
aI4571
aI3712
aa(lp1938
I0
aI517607
aI33950
aI71314
aI3787
aI1292
aa(lp1939
I0
aI1526
aI520
aI101728
aI17643
aI52305
aa(lp1940
I0
aI17004
aI85133
aI85569
aI14220
aI95088
aI57021
aI619020
aI1545097
aa(lp1941
I0
aI10328
aa(lp1942
I0
aI1344
aa(lp1943
I0
aI22714
aa(lp1944
I0
aI68
aI163
aI167
aI1143
aI308
aI75
aI569
aI1790
aI107
aI141835
aI510518
aI186593
aI88432
aI140
aI6162
aI7255
aI2252
aI334009
aI4219
aa(lp1945
I0
aI71
aI609378
aI595881
aI272122
aI578592
aI534120
aa(lp1946
I0
aI64833
aI83322
aI13299
aI93967
aI70594
aI4670
aI76192
aI189839
aI60049
aI94543
aa(lp1947
I0
aa(lp1948
I0
aa(lp1949
I0
aa(lp1950
I0
aa(lp1951
I0
aI96160
aI236
aI612471
aI20649
aI584666
aI166677
aI345629
aI173379
aI10283
aI406254
aI62
aa(lp1952
I0
aa(lp1953
I0
aI63229
aI23458
aI648
aI979
aI1180
aI611953
aI76229
aI61364
aI102279
aI389
aa(lp1954
I0
aI103996
aI15123
aI51086
aI472
aI32729
aI609
aI764
aI624
aI492
aI58175
aI14151
aI70877
aI11856
aI1353
aI5925
aI166912
aI85496
aa(lp1955
I0
aI5608
aI180
aI52
aa(lp1956
I0
aI1330
aI1342
aI233955
aI99
aI331706
aI33174
aI3645
aI1186
aI67289
aI4453
aI58337
aa(lp1957
I0
aI65300
aI4966
aI13696
aI1447
aI74836
aI86333
aI9529
aI602327
aI2955
aI98704
aI323125
aI3959
aI84626
aI10651
aI1625
aI5798
aa(lp1958
I0
aI287
aa(lp1959
I0
aI62594
aI629902
aI56133
aI101746
aI9399
aI306
aI60500
aI8307
aa(lp1960
I0
aa(lp1961
I0
aa(lp1962
I0
aI3759
aa(lp1963
I0
aI9656
aI12
aI50184
aI15649
aI5568
aI714
aI78401
aa(lp1964
I0
aa(lp1965
I0
aI39
aI55049
aI99209
aI7163
aI86617
aa(lp1966
I0
aI27217
aI1272
aI1987
aI71850
aI100907
aI75192
aI587887
aI432725
aI99867
aI4856
aI620
aI2096
aI56672
aI5137
aI2739
aI8726
aI1221
aI8785
aI230716
aa(lp1967
I0
aI29575
aI107
aI578188
aI98045
aI64839
aI4916
aI590
aI11766
aI9669
aI325352
aI7003
aI850
aI21617
aI84618
aI142690
aI14063
aa(lp1968
I0
aI79
aI1287
aI159
aI404263
aI525955
aI254096
aI77330
aI7747
aa(lp1969
I0
aI57
aI56287
aI618327
aI93061
aa(lp1970
I0
aI334
aI472
aI601041
aI140423
aI95895
aI7409
aI5002
aI565
aI423
aI471
aI57175
aI9878
aI447373
aI211
aI110
aI663
aI255
aa(lp1971
I0
aa(lp1972
I0
aI12372
aI131
aI618069
aI54284
aI106351
aI1866
aI91006
aI1965
aI231722
aa(lp1973
I0
aI180
aI82
aI284
aa(lp1974
I0
aI47
aI310143
aI17504
aI67844
aI1970
aI164493
aI435
aI6734
aI16099
aI317
aI3585
aI3715
aI9626
aI46833
aI105761
aI8020
aI59644
aa(lp1975
I0
aa(lp1976
I0
aI112
aI11
aI231
aa(lp1977
I0
aI185
aI116
aa(lp1978
I0
aI2619
aI48
aI168
aI630289
aI1303546
aI576452
aa(lp1979
I0
aI10601
aI6077
aI615089
aa(lp1980
I0
aI50
aI12
aI1642
aI599838
aI79286
aI1319
aI6961
aI8997
aI1872
aI72735
aI53
aI598296
aI1001
aI17919
aI3978
aI4379
aI44
aI338585
aI271703
aI42
aI41
aa(lp1981
I0
aI20687
aI579069
aI103681
aI9033
aI220
aI7905
aI51365
aI2935
aa(lp1982
I0
aI11211
aI616958
aI674706
aI783901
aa(lp1983
I0
aI54185
aI12670
aI81167
aa(lp1984
I0
aI120
aa(lp1985
I0
aI99404
aI16689
aI175316
aI57573
aI194569
aI92942
aI87073
aI81900
aI143954
aI1549048
aI3061
aa(lp1986
I0
aI757
aI691
aI601121
aI76575
aI14686
aI146474
aI2681
aI103570
aI493875
aI18989
aI7265
aI45
aa(lp1987
I0
aI55258
aI10099
aI11776
aI121
aI612224
aI145283
aI29169
aI658828
aI354365
aI866
aI14348
aI77455
aI78148
aa(lp1988
I0
aI127
aI70245
aI616262
aI159162
aI3393
aa(lp1989
I0
aI466
aI629214
aI78585
aI1128
aI11194
aI89706
aI66616
aI1741
aa(lp1990
I0
aa(lp1991
I0
aI60712
aI9546
aI268
aI266
aI525791
aI550
aa(lp1992
I0
aI96
aI600287
aI52092
aI9899
aI78707
aI81674
aI3695
aI4993
aI4436
aa(lp1993
I0
aa(lp1994
I0
aI9809
aI5273
aI119
aI611586
aI672647
aa(lp1995
I0
aI21582
aI5823
aI77219
aI98
aI607691
aI69574
aI89803
aI3036
aI4154
aI2312
aI4639
aI18873
aI49383
aI869785
aI4380
aI8651
aI19514
aI44226
aI174483
aI6124
aI4695
aI2976
aa(lp1996
I0
aa(lp1997
I0
aI23889
aa(lp1998
I0
aI12160
aI447
aI569
aI611112
aI49104
aI88076
aI437
aI8463
aI2008
aa(lp1999
I0
aI174924
aI15660
aI1088
aI318791
aI327
aI20759
aI1145
aI10613
aI84226
aa(lp2000
I0
aI22636
aa(lp2001
I0
aI19795
aI10694
aI160
aI613037
aI61908
aI715264
aI157964
aI754874
aa(lp2002
I0
aI800
aa(lp2003
I0
aa(lp2004
I0
aI821
aI22156
aI10856
aa(lp2005
I0
aa(lp2006
I0
aa(lp2007
I0
aa(lp2008
I0
aa(lp2009
I0
aI617997
aI51987
aI87058
aI99427
aI5394
aI527
aa(lp2010
I0
aI239
aa(lp2011
I0
aI109
aI409
aI6802
aI814
aI1272
aI190215
aI408481
aI36030
aI51298
aI15375
aI3237
aa(lp2012
I0
aI89911
aI61401
aI28
aI129
aI30989
aa(lp2013
I0
aI110
aI635222
aI80815
aI101841
aa(lp2014
I0
aI28849
aI351
aa(lp2015
I0
aI549
aI604626
aI10125
aa(lp2016
I0
aI205
aI5236
aa(lp2017
I0
aa(lp2018
I0
aI328
aI175
aI603015
aI174167
aa(lp2019
I0
aI615123
aI673186
aI168432
aI698488
aI155240
aa(lp2020
I0
aI218
aa(lp2021
I0
aa(lp2022
I0
aI10426
aa(lp2023
I0
aI719
aI10775
aI619191
aI149540
aI30098
aI65277
aI2047
aI349521
aI174592
aI582265
aI451724
aI9081
aI1543
aa(lp2024
I0
aI22014
aI99
aI611782
aI144143
aI89647
aI453796
aI583
aI81210
aI88672
aI246745
aI437319
aa(lp2025
I0
aa(lp2026
I0
aI66
aI216
aI585228
aI77826
aI9095
aI90791
aI6174
aI66427
aI84
aa(lp2027
I0
aI71
aI510442
aI35213
aa(lp2028
I0
aI7603
aa(lp2029
I0
aI87
aI480
aI612112
aI670979
aI93594
aa(lp2030
I0
aa(lp2031
I0
aI193
aI170
aI579965
aI10077
aI1432
aI79920
aI174
aI3164
aI21171
aI6087
aI50550
aI7366
aI1961
aI79514
aI531335
aI84322
aI74949
aI449354
aI107817
aI439
aI49469
aI199859
aa(lp2032
I0
aa(lp2033
I0
aI343
aI485695
aI89828
aI2236
aa(lp2034
I0
aI250
aI504385
aI81264
aa(lp2035
I0
aa(lp2036
I0
aa(lp2037
I0
aI214
aI1290
aI201
aI59
aI591942
aI185387
aa(lp2038
I0
aI15360
aI68289
aI16830
aI75073
aI101716
aI64837
aI607780
aI13
aI44
aI604141
aI244179
aI275945
aI8668
aI9621
aI357
aI393
aI52309
aI6118
aI189381
aI63612
aI279
aa(lp2039
I0
aI2594
aI13515
aI156
aI606873
aI144225
aI942616
aI367101
aa(lp2040
I0
aa(lp2041
I0
aI1072
aI115
aI619157
aI580144
aI97158
aI10876
aI72391
aI414133
aI29227
aI55219
aa(lp2042
I0
aI942
aI56062
aa(lp2043
I0
aa(lp2044
I0
aI2294
aI249
aI79075
aI5496
aI731
aI162
aI60
aI596970
aI110670
aa(lp2045
I0
aI57001
aI171790
aI5181
aI599707
aI21622
aI5640
aI406870
aI167447
aI2120
aa(lp2046
I0
aI43
aa(lp2047
I0
aa(lp2048
I0
aa(lp2049
I0
aa(lp2050
I0
aa(lp2051
I0
aI606606
aa(lp2052
I0
aI936
aI88
aI614754
aI139589
aI106644
aa(lp2053
I0
aI13042
aI70495
aI83355
aI65
aI330202
aI772381
aI1212
aI276119
aI519079
aa(lp2054
I0
aI91
aI614886
aI138821
aI104938
aa(lp2055
I0
aa(lp2056
I0
aa(lp2057
I0
aa(lp2058
I0
aI142
aI605565
aI326683
aI158895
aI86575
aI28632
aI53209
aI2353
aa(lp2059
I0
aI662391
aa(lp2060
I0
aI368
aI880
aI1903
aI171626
aI671
aI600821
aa(lp2061
I0
aI291
aI114
aI605314
aI70524
aI102016
aI758093
aI250372
aI169191
aa(lp2062
I0
aI166
aa(lp2063
I0
aa(lp2064
I0
aa(lp2065
I0
aI136
aI610589
aI155759
aI10770
aI54010
aI358343
aI76606
aI945
aI25550
aI57357
aI5717
aa(lp2066
I0
aI6901
aI1785
aI513356
aI7197
aa(lp2067
I0
aI138
aa(lp2068
I0
aI35974
aI258
aa(lp2069
I0
aI596
aI167
aI55
aI607339
aI487533
aI90557
aI3269
aI17051
aI5000
aI151203
aI69153
aI2194
aa(lp2070
I0
aI47667
aI23424
aI63532
aI25847
aI494646
aI518004
aI8018
aI2226
aI798
aI1783
aa(lp2071
I0
aI69
aI64
aI570400
aI94987
aI10397
aI60507
aI6925
aI530
aI1832
aI201
aI77170
aI4950
aa(lp2072
I0
aI16206
aI133
aI609295
aI13629
aI92311
aI104
aI1085264
aI434393
aI2521
aI3418
aI10333
aI89910
aI56558
aI3006
aI1316
aI18333
aa(lp2073
I0
aa(lp2074
I0
aI194
aI526572
aI75203
aI1187
aI37
aI53
aI28888
aI8574
aI49579
aI3947
aI4610
aI89
aI2435
aa(lp2075
I0
aI122
aa(lp2076
I0
aI465
aI20056
aI83857
aI6795
aI700507
aI231410
aI260
aI796126
aI161980
aI419068
aa(lp2077
I0
aI214
aI11022
aI1149
aI3274
aI78369
aI221
aI22455
aI60700
aI23039
aI60160
aI619191
aI1465204
aa(lp2078
I0
aI2427
aI22045
aI12281
aI2486
aI582191
aI8766
aI177
aI588750
aI115045
aI2281
aI46729
aI18505
aI4304
aI7646
aI312516
aI177
aI1988
aI823
aI1221
aI89332
aI115574
aa(lp2079
I0
aI617824
aI73148
aI114291
aI230692
aI10891
aI2261
aI4573
aI4466
aI45
aI64057
aI7822
aI4481
aI4562
aI750
aI5724
aI912
aI176
aI163933
aI413779
aI12377
aI77181
aI1980
aI15561
aa(lp2080
I0
aI183
aI45
aI525792
aI96404
aa(lp2081
I0
aI8617
aI6812
aI482
aI387
aI73
aI13
aI133
aI66
aI6813
aI602391
aI165879
aI439429
aI420503
aI359660
aI71123
aa(lp2082
I0
aI17
aI632
aI161795
aI94924
aI258312
aI31505
aI47113
aI2914
aa(lp2083
I0
aa(lp2084
I0
aa(lp2085
I0
aI19070
aI271
aI603807
aa(lp2086
I0
aa(lp2087
I0
aa(lp2088
I0
aI20
aI13124
aI58785
aI26142
aI99671
aI218446
aI122632
aI67673
aI21405
aa(lp2089
I0
aI85327
aI608237
aI10274
aI5262
aI1899
aI141
aI519920
aI169
aI427310
aI157070
aI94964
aI4107
aI2377
aI30
aI17203
aI65581
aI7784
aI18883
aI50095
aI12804
aI3619
aI4088
aI139912
aI8318
aI10377
aI19674
aI4240
aI54800
aI5251
aI20
aI1480
aI5547
aI3136
aI524
aI5284
aI462
aI57045
aI63
aa(lp2090
I0
aa(lp2091
I0
aI8699
aI159
aI523619
aI678989
aI113092
aI303
aa(lp2092
I0
aI7672
aI8672
aI807
aI242
aI502939
aI22007
aI2200
aa(lp2093
I0
aI220
aI599802
aI106658
aI61064
aa(lp2094
I0
aI8709
aI12890
aI58881
aI16477
aI13335
aI85029
aI72904
aI865231
aI339008
aI526863
aa(lp2095
I0
aI18615
aI49949
aI25207
aI3960
aI6784
aI4126
aI49399
aI73
aI604326
aI872
aI263098
aI19171
aI751
aI161112
aI12327
aI63584
aI1361
aI2620
aI220
aI381
aI62
aI8411
aI69047
aI2122
aI747
aa(lp2096
I0
aI204
aI617367
aI1401
aI766179
aI553509
aa(lp2097
I0
aa(lp2098
I0
aI11136
aI1622
aI602926
aI602489
aI3300
aI1019
aI744421
aI370937
aa(lp2099
I0
aI439
aI136
aI134
aI522494
aI165145
aI2578
aI506
aI674
aI14021
aI13377
aI54970
aI11116
aI3757
aI425
aI259707
aI8646
aI64262
aI780
aI118
aI31730
aI152342
aI6816
aI1566
aI7422
aI808
aI1522
aI1716
aI51703
aI5583
aI3305
aa(lp2100
I0
aI86
aI423
aI618214
aI71966
aI112117
aa(lp2101
I0
aI1529
aI75793
aI25756
aa(lp2102
I0
aI13651
aa(lp2103
I0
aI3642
aI601575
aa(lp2104
I0
aI11273
aI2484
aI84683
aI66554
aI30709
aI580174
aI13761
aI3601
aI840255
aI1602
aI87479
aI597431
aI13502
aI15897
aI453
aa(lp2105
I0
aI10456
aI85498
aI21957
aI131
aI596065
aI92237
aI607
aI342885
aI261094
aa(lp2106
I0
aI1165
aI600063
aa(lp2107
I0
aI1859
aI4224
aa(lp2108
I0
aI85686
aI514470
aI192448
aI435732
aI244764
aa(lp2109
I0
aI21
aI616
aI615
aI216
aI149
aI369
aI410861
aI610314
aI808
aI77081
aI36334
aI49970
aa(lp2110
I0
aa(lp2111
I0
aI11083
aI394
aI1990
aI84459
aI9792
aI24
aI61775
aI85058
aI42
aI778536
aI17793
aI1951
aa(lp2112
I0
aI643
aI13996
aI82791
aI18037
aI50268
aI349116
aI162280
aI4867
aI2920
aI13749
aI443063
aI5720
aI153979
aI164661
aI3185
aI9415
aI160946
aI48
aI7477
aI13048
aI153
aI54339
aI521926
aI19795
aI82566
aI17743
aI4796
aI63400
aa(lp2113
I0
aI1434
aa(lp2114
I0
aI600600
aI1798
aI88456
aI777040
aI324258
aI176174
aI263596
aI22126
aI2659
aa(lp2115
I0
aI4655
aI4413
aI59204
aI25248
aI100652
aI218412
aI122779
aI135
aI679879
aI11200
aI246636
aI320658
aI445381
aa(lp2116
I0
aI605166
aI687
aI106929
aI65568
aI350105
aa(lp2117
I0
aI7752
aI601396
aI762880
aI259390
aI15240
aI350495
aa(lp2118
I0
aa(lp2119
I0
aI87702
aI2052
aI575
aI607148
aI7988
aI1833
aI54503
aI636158
aI645
aI523349
aa(lp2120
I0
aI1002
aI258
aI597353
aI7014
aI86285
aI24
aI652
aI872
aI530339
aI58200
aI186406
aI160379
aI710125
aa(lp2121
I0
aI56310
aI12268
aI9919
aa(lp2122
I0
aI57
aI2124
aI18457
aa(lp2123
I0
aa(lp2124
I0
aI2236
aI375
aI593865
aI1020939
aI102355
aI181148
aI4537
aI57861
aI3492
aI1789
aI1664
aI2671
aI336
aI248
aI14286
aI229569
aI689
aa(lp2125
I0
aI492
aI585877
aI94506
aI874
aI3061
aI12853
aI58260
aI10487
aI174
aI525168
aI80783
aI12580
aI88420
aI159712
aI7371
aI49
aI3967
aa(lp2126
I0
aI83825
aI2872
aa(lp2127
I0
aI408465
aI133
aI351807
aI261468
aI91
aI2001
aa(lp2128
I0
aI1071
aI66586
aI19480
aa(lp2129
I0
aa(lp2130
I0
aI177160
aI586601
aI10565
aI679596
aI260453
aI344362
aI14245
aI3992
aI147348
aI4496
aa(lp2131
I0
aI278
aI501964
aI171549
aI1477
aa(lp2132
I0
aI17647
aI1181
aa(lp2133
I0
aI201
aI12046
aI51291
aI21087
aI7749
aa(lp2134
I0
aI55
aI152
aI493832
aI702887
aI7983
aI65952
aI94321
aI5286
aa(lp2135
I0
aI17653
aI19675
aI14178
aI48079
aa(lp2136
I0
aI82542
aI66286
aI24677
aa(lp2137
I0
aI498
aI9892
aI398
aI583807
aI94220
aI330051
aI86226
aa(lp2138
I0
aI3995
aa(lp2139
I0
aI83907
aI605862
aI416546
aI2376
aI173562
aa(lp2140
I0
aI12671
aa(lp2141
I0
aI81781
aI15579
aI58694
aI14363
aI102
aI205
aa(lp2142
I0
aI1945
aI54423
aI1695
aI109
aI150
aI618345
aI586612
aI362080
aI360
aI15326
aI48773
aI11265
aI28107
aI64120
aI11940
aI5780
aI246937
aI189725
aI57244
aI10774
aI19002
aa(lp2143
I0
aa(lp2144
I0
aI51945
aI88558
aI453758
aa(lp2145
I0
aI2202
aI139
aa(lp2146
I0
aI592059
aa(lp2147
I0
aa(lp2148
I0
aI292
aI216
aI155
aI1447
aI348
aI588964
aI604181
aI281
aa(lp2149
I0
aI58498
aa(lp2150
I0
aa(lp2151
I0
aI233
aI52099
aI30100
aI408580
aI17920
aI67627
aI276
aI139
aI10987
aI170306
aI8400
aa(lp2152
I0
aI53451
aI9777
aI81
aI231
aI521387
aI4252
aI513127
aI5985
aI64946
aI799
aI3079
aI336
aI2086
aI14993
aI69213
aI174
aI944
aI2198
aI1318
aI2728
aI15588
aa(lp2153
I0
aI530
aI5982
aI142
aI431
aI214
aI484636
aI96914
aI57347
aI11650
aI12399
aI4386
aa(lp2154
I0
aI5443
aI54500
aI25871
aI59162
aI86108
aa(lp2155
I0
aI51
aI594
aI586098
aI92783
aI18025
aI62394
aI245792
aI286914
aI336772
aI676193
aa(lp2156
I0
aI163
aI404901
aI84293
aI959
aI16270
aI62175
aa(lp2157
I0
aI56809
aI26501
aI97
aI603653
aI56174
aI263845
aI3778
aa(lp2158
I0
aI27937
aI55190
aI56
aI294
aI344353
aI16479
aa(lp2159
I0
aI577893
aI1805361
aI419
aI4251
aI3522
aI452
aI1378
aI2838
aI7057
aa(lp2160
I0
aI369
aI51518
aa(lp2161
I0
aI1586
aI55189
aI12164
aI20184
aI48325
aI184
aa(lp2162
I0
aI237
aI55319
aI24254
aI3381
aa(lp2163
I0
aI29
aI587
aI581324
aa(lp2164
I0
aa(lp2165
I0
aa(lp2166
I0
aI20245
aI5634
aI64453
aI150
aI82216
aI255471
aI20071
aI72796
aI75029
aI4141
aI3333
aI2200
aI30307
aa(lp2167
I0
aI9469
aI25513
aI61313
aI21079
aa(lp2168
I0
aa(lp2169
I0
aI20278
aI10755
aI59584
aa(lp2170
I0
aI8928
aI23858
aI64150
aI416558
aI628062
aI165357
aa(lp2171
I0
aI13401
aI16007
aI19530
aI58773
aI613
aI864753
aI163461
aI3981
aI3805
aI231
aI11595
aI2942
aa(lp2172
I0
aI596878
aI369548
aI54
aI280
aI795173
aI147854
aa(lp2173
I0
aI3204
aI562
aI8430
aI610836
aI100099
aI491305
aI78384
aI13142
aa(lp2174
I0
aI9697
aI512291
aI169474
aI9848
aI1116
aI648
aI7058
aI9408
aI150
aI6770
aI57339
aI184020
aI68
aI1695
aI1390
aI90040
aI461
aI11640
aI3257
aI217
aI148936
aI92871
aI240915
aI103324
aI1180
aa(lp2175
I0
aI24644
aI58587
aI99584
aI249837
aI33245
aI69162
aI18508
aI81969
aI86730
aI67254
aa(lp2176
I0
aa(lp2177
I0
aI1520
aI622178
aa(lp2178
I0
aI5870
aI3004
aI617529
aI18098
aI52248
aI304
aI1578805
aI67600
aa(lp2179
I0
aI4314
aI497
aa(lp2180
I0
aI4917
aa(lp2181
I0
aI7261
aI30852
aI58563
aa(lp2182
I0
aI15360
aI612724
aI100489
aI240982
aI332367
aI277934
aa(lp2183
I0
aa(lp2184
I0
aI1426
aa(lp2185
I0
aa(lp2186
I0
aI3983
aI251
aI553
aI19423
aI59453
aI29989
aI69751
aI178273
aI11645
aI53056
aI17106
aI5145
aI8270
aI1100
aa(lp2187
I0
aa(lp2188
I0
aI4264
aI2262
aa(lp2189
I0
aa(lp2190
I0
aI63
aI1200
aI626
aI8505
aI4390
aI8955
aI86991
aI8881
aI51
aI66699
aI163082
aI17945
aI878
aI64470
aI6818
aI1427
aI11274
aI73809
aI107880
aI610
aI335799
aI1885
aa(lp2191
I0
aa(lp2192
I0
aa(lp2193
I0
aI9052
aI502829
aI96773
aI71974
aI196
aI277920
aI691645
aa(lp2194
I0
aI16213
aI60723
aI30830
aa(lp2195
I0
aI16145
aI760
aI94
aI1323
aI68
aI137
aI605140
aI75330
aI9241
aI2715
aI436024
aI399427
aI365301
aa(lp2196
I0
aa(lp2197
I0
aI4640
aI364523
aI169
aI761466
aI423458
aI193756
aI781
aa(lp2198
I0
aa(lp2199
I0
aI53
aI253
aI73
aI623410
aI99306
aI228280
aI83970
aI3327
aI30356
aI844
aI51824
aI81204
aa(lp2200
I0
aI7937
aa(lp2201
I0
aI4647
aI618014
aI10075
aI3391
aI503851
aI14914
aI243698
aI159747
aI363225
aa(lp2202
I0
aI3679
aI616
aI24958
aI56242
aI13089
aI19936
aI60320
aI181088
aI84497
aI72235
aI36170
aI81470
aI144522
aI1137135
aa(lp2203
I0
aI8035
aI16191
aa(lp2204
I0
aa(lp2205
I0
aa(lp2206
I0
aI6782
aa(lp2207
I0
aI16346
aI133
aI605975
aI749234
aI175441
aI364395
aa(lp2208
I0
aI1387
aI669
aI616895
aI18400
aI105
aI498993
aI692353
aI82812
aa(lp2209
I0
aa(lp2210
I0
aa(lp2211
I0
aI1748
aa(lp2212
I0
aI732
aI189
aI12516
aI9948
aI57947
aI103
aI618
aI79113
aI4235
aI8470
aI349
aI178683
aI7960
aI61
aI204
aI65
aI605
aI758675
aI263688
aI330400
aI423675
aI8643
aa(lp2213
I0
aI62044
aI712520
aa(lp2214
I0
aa(lp2215
I0
aI61633
aI31160
aI59606
aI163668
aI23753
aI83029
aI350047
aI256611
aa(lp2216
I0
aI832
aI121
aI70
aI598907
aI72175
aI350325
aI71674
aI173368
aI1036
aI2282
aI3646
aI8188
aa(lp2217
I0
aI210
aI76
aa(lp2218
I0
aa(lp2219
I0
aI7823
aI414606
aI12115
aI3488
aa(lp2220
I0
aI13133
aI9693
aI55943
aa(lp2221
I0
aa(lp2222
I0
aI12966
aI1378
aI8700
aI58387
aI266624
aI87631
aI19774
aI330027
aI256464
aI1201248
aI81787
aI4707
aa(lp2223
I0
aI9442
aI58350
aI309
aI25493
aI58645
aI183208
aI84395
aI23658
aa(lp2224
I0
aI3567
aI116
aI339492
aI160055
aI16096
aa(lp2225
I0
aI9834
aI26
aI53139
aI11314
aI22720
aI218350
aI392
aI38452
aI144831
aI79346
aI31665
aI950
aa(lp2226
I0
aa(lp2227
I0
aI7660
aI171
aa(lp2228
I0
aI756
aI125
aI314803
aI185710
aI89548
aI2071
aI410
aa(lp2229
I0
aI9984
aI58426
aI156
aI309
aI602544
aI144
aI449329
aI259516
aI158310
aI804
aI363079
aa(lp2230
I0
aI9599
aI258
aI590123
aI14279
aI937
aI74116
aI434
aI245425
aI81651
aa(lp2231
I0
aI101253
aI63104
aI177911
aI85142
aI71601
aI36152
aI67731
aI15195
aI85994
aI3610
aI517
aI57460
aI53
aa(lp2232
I0
aI101045
aI253512
aI3050
aI68
aI758176
aI262167
aI520893
aa(lp2233
I0
aI101616
aI377
aI740
aI701
aI590716
aI1709
aI251478
aI79859
aI4024
aI187355
aa(lp2234
I0
aI748
aI67502
aI3659
aI602066
aI362317
aI87551
aa(lp2235
I0
aI73190
aI106
aI600227
aI4447
aa(lp2236
I0
aI65399
aI36246
aa(lp2237
I0
aI67267
aI514282
aI197910
aI423089
aI590552
aa(lp2238
I0
aa(lp2239
I0
aI57379
aI87
aI338
aI323
aI604490
aI262002
aI90697
aI5617
aa(lp2240
I0
aI549
aI388
aI605064
aI1507
aI62829
aI351273
aI161102
aa(lp2241
I0
aI60800
aI213
aI31061
aI58847
aI183075
aI103024
aI63205
aI10074
aI65903
aa(lp2242
I0
aI547
aI79
aI14
aI107
aI345
aI134
aI579993
aI113267
aI5881
aI3768
aI55381
aI170349
aI35398
aI71126
aI6775
aI72121
aI3280
aI123
aa(lp2243
I0
aI60804
aI30665
aI59557
aI183087
aI102798
aI67854
aI71821
aI970670
aa(lp2244
I0
aI691
aI50
aI605593
aI418787
aI343092
aI522975
aa(lp2245
I0
aI55934
aa(lp2246
I0
aI951
aI51
aI62806
aI594569
aa(lp2247
I0
aa(lp2248
I0
aI53123
aI112
aa(lp2249
I0
aI36071
aI218444
aI20076
aI84452
aI73368
aI11420
aI8216
aI6106
aI58254
aI31845
aI676
aa(lp2250
I0
aa(lp2251
I0
aa(lp2252
I0
aI7556
aI90697
aI419030
aI7787
aa(lp2253
I0
aI5130
aI8339
aI16377
aI205
aI596196
aI328606
aI174097
aI2302
aI2473
aI2569
aI16185
aI52791
aI112
aa(lp2254
I0
aI17857
aI81
aI582
aI12571
aI581517
aa(lp2255
I0
aI1991
aI956
aI7805
aI601376
aI7937
aI25
aI446034
aa(lp2256
I0
aa(lp2257
I0
aI601186
aa(lp2258
I0
aI965
aI15695
aI515605
aI610433
aI74397
aa(lp2259
I0
aI19575
aI249928
aI342049
aI9566
aI3604
aI684
aI254
aI33
aI1330
aI547
aa(lp2260
I0
aa(lp2261
I0
aI280913
aI669089
aI6134
aI3688
aI4575
aa(lp2262
I0
aI19933
aI6350
aI586833
aI13276
aI844203
aa(lp2263
I0
aI19977
aI934
aI2734
aa(lp2264
I0
aI17331
aI15858
aI54111
aI4388
aI196147
aI1478
aa(lp2265
I0
aI145
aa(lp2266
I0
aI726
aI20984
aI591559
aI620325
aI241001
aI5756
aI361715
aa(lp2267
I0
aI15574
aI127
aI588385
aI361759
aI72680
aI73
aI593
aI112
aI82
aI7588
aI2018
aI151666
aI405
aI9217
aI29739
aI401835
aI80470
aI2452
aI1086
aI187023
aI563
aI152425
aI3400
aI153
aI17161
aa(lp2268
I0
aI20730
aI110
aI83
aa(lp2269
I0
aa(lp2270
I0
aI68595
aI170972
aI19105
aI85206
aI74179
aa(lp2271
I0
aa(lp2272
I0
aa(lp2273
I0
aI156
aI5100
aI595623
aI1128
aI341272
aI12670
aI660
aI756
aI3442
aI386
aI724
aI1134
aI56696
aI6920
aI1515
aI16518
aI2704
aI66437
aI6256
aI3776
aa(lp2274
I0
aI68988
aI184896
aI83093
aI695902
aI13273
aI402184
aI365713
aI415050
aI94
aa(lp2275
I0
aa(lp2276
I0
aI2238
aI436
aI384
aI77287
aI2384
aa(lp2277
I0
aI21987
aI564708
aI11561
aI457558
aI415073
aI361835
aa(lp2278
I0
aI4617
aI594739
aI1366
aI692159
aI548
aI170134
aI184192
aa(lp2279
I0
aI336356
aI82862
aa(lp2280
I0
aI703
aI598444
aa(lp2281
I0
aI597506
aI14834
aI9412
aI54
aI2908
aI232904
aI20565
aa(lp2282
I0
aI593005
aI849822
aa(lp2283
I0
aa(lp2284
I0
aI591684
aI259857
aI381
aa(lp2285
I0
aa(lp2286
I0
aI8678
aI800
aI974
aa(lp2287
I0
aI92
aI415159
aI97631
aa(lp2288
I0
aI154
aI103
aI586781
aI692971
aI336329
aI1048
aI433134
aI60
aI85
aa(lp2289
I0
aa(lp2290
I0
aI5821
aI2779
aI1270
aa(lp2291
I0
aI192
aI546
aI584700
aI15006
aI2366
aI333620
aI91122
aI12206
aI92057
aI59228
aI13542
aI88352
aI159529
aI80862
aI1325
aI29937
aI62011
aI31
aa(lp2292
I0
aI1404
aI535
aI331
aI586969
aI368
aI511299
aI78822
aa(lp2293
I0
aI67137
aI144
aI174512
aI85100
aI72957
aI20274
aI15030
aI93
aI50333
aa(lp2294
I0
aa(lp2295
I0
aa(lp2296
I0
aa(lp2297
I0
aI54260
aI164659
aa(lp2298
I0
aI1693779
aI18873
aI16217
aI1569
aI1384
aI145
aI801
aI1768
aI50632
aI23820
aI1835
aI2484
aI75799
aI179593
aI86814
aa(lp2299
I0
aI1167
aa(lp2300
I0
aI232
aI592906
aI352795
aI591380
aI257158
aa(lp2301
I0
aa(lp2302
I0
aI185334
aI19082
aI86944
aI63800
aI22871
aI62618
aI22270
aI86536
aI63604
aI774299
aa(lp2303
I0
aI185
aI774196
aI90386
aI15116
aI13150
aI51872
aI4665
aa(lp2304
I0
aa(lp2305
I0
aa(lp2306
I0
aa(lp2307
I0
aI183853
aI83947
aI2721
aI15234
aI57679
aI24040
aI55356
aI375858
aa(lp2308
I0
aI21
aI171172
aI730006
aI78924
aI43
aI247248
aI156946
aI185301
aI1411
aI8681
aI82135
aI8394
aI325016
aI14265
aa(lp2309
I0
aa(lp2310
I0
aI164862
aI25014
aI306
aI760991
aI81729
aI343896
aI2122
aI197904
aI814
aI64051
aI2272
aI18981
aa(lp2311
I0
aI267783
aI205
aI4374
aI12528
aI44909
aI78
aI16389
aI7
aI3657
aI1619
aa(lp2312
I0
aI267843
aI4349
aI48
aI57514
aI9924
aI6510
aI2296
aI174
aI1146
aI1521
aa(lp2313
I0
aI785
aI867703
aI77002
aa(lp2314
I0
aI165088
aI4551
aI119
aI606473
aI84632
aa(lp2315
I0
aI114
aa(lp2316
I0
aI180
aI237
aI622270
aI172094
aI19773
aI335605
aI77556
aI507559
aa(lp2317
I0
aI17675
aI171887
aI82557
aI74191
aI27541
aI60411
aI29259
aI4631
aI83125
aI58086
aa(lp2318
I0
aI875366
aI340197
aI527657
aa(lp2319
I0
aI872918
aI6774
aI11731
aa(lp2320
I0
aI859676
aI100152
aa(lp2321
I0
aa(lp2322
I0
aI260801
aI1370
aI182
aI84270
aI388
aI1511
aI525254
aI2752
aI25
aa(lp2323
I0
aI96
aI17
aI1967
aI171677
aI82590
aI74441
aI27349
aI59167
aI32146
aI477
aI85286
aI2706
aI56305
aI793061
aa(lp2324
I0
aI58
aI7290
aI147404
aI17730
aa(lp2325
I0
aI13
aI3789
aI168745
aI220
aI593327
aI87912
aa(lp2326
I0
aI860176
aI338404
aI526850
aa(lp2327
I0
aI857510
aI162429
aI13491
aI2992
aI10875
aI16754
aI48408
aI21484
aI87575
aI149735
aI696
aI1366
aI46
aI316
aI27
aI51
aI83644
aI113322
aI56542
aa(lp2328
I0
aI7450
aI166189
aI82794
aI74318
aI22697
aI13287
aI76903
aI6530
aI155193
aa(lp2329
I0
aI482
aI436
aI612055
aI157138
aI15462
aI2731
aI240
aI15896
aI48000
aI2781
aI539
aI66
aI107104
aI76880
aI72043
aI10187
aI112
aI847
aI5797
aI6332
aI521
aa(lp2330
I0
aI8439
aI166436
aI85286
aI74768
aI5689
aI6680
aa(lp2331
I0
aI2093
aI495848
aI109711
aa(lp2332
I0
aI2275
aI859691
aa(lp2333
I0
aI1353
aI182135
aI82554
aI15625
aa(lp2334
I0
aI524862
aI108
aI676173
aI4268
aI868844
aa(lp2335
I0
aI205
aI22
aI148281
aI116
aa(lp2336
I0
aI6447
aI1546
aI159
aI757012
aI75373
aa(lp2337
I0
aI861213
aI94860
aI500109
aI691948
aa(lp2338
I0
aI1665
aI603638
aI659
aI157998
aI90271
aI6367
aI176775
aI89743
aI269645
aI52472
aI4640
aI5141
aa(lp2339
I0
aI2642
aI859478
aa(lp2340
I0
aI2158
aa(lp2341
I0
aI467
aI858585
aI21789
aa(lp2342
I0
aa(lp2343
I0
aI148750
aI1229830
aa(lp2344
I0
aI11936
aI763868
aI720001
aI327819
aI164414
aI15639
aa(lp2345
I0
aI2400
aI269
aI159
aI341836
aI279638
aa(lp2346
I0
aI97
aI773813
aI278445
aa(lp2347
I0
aI20333
aI585194
aI93068
aa(lp2348
I0
aI64
aI696097
aI91414
aI77540
aI4572
aI83069
aI30549
aI240408
aI3581
aI19015
aI42753
aI12140
aI3631
aI12
aI3757
aI19973
aI223331
aI344840
aI84303
aI4371
aa(lp2349
I0
aa(lp2350
I0
aI17785
aI145
aa(lp2351
I0
aI140
aI688318
aI177789
aa(lp2352
I0
aI15902
aI7914
aa(lp2353
I0
aI7349
aI10109
aI64084
aI15299
aI9680
aI2964
aI2920
aI8368
aI1442
aI670648
aI418829
aI256054
aI2567
aa(lp2354
I0
aa(lp2355
I0
aI16500
aI12951
aI80864
aI683165
aI218
aI705618
aI319759
aa(lp2356
I0
aI10087
aI6398
aI74115
aI559
aI253
aI61587
aI200473
aI74148
aI153
aI442487
aI80343
aI362407
aI16083
aI47354
aI7853
aI40
aI175065
aI2404
aI3420
aI5853
aI795
aI721
aa(lp2357
I0
aI10884
aa(lp2358
I0
aI3069
aI857
aI767018
aI281147
aI448604
aI147050
aa(lp2359
I0
aI6408
aa(lp2360
I0
aI16097
aI2068
aI60228
aI9638
aI310
aI699240
aI264303
aI514825
aI72504
aI87
aI501
aa(lp2361
I0
aI338765
aI273909
aa(lp2362
I0
aI4834
aI481
aI335119
aI264144
aI21973
aI1499
aI2024
aI51176
aa(lp2363
I0
aa(lp2364
I0
aI11189
aI343
aI761577
aI721915
aI3209
aI85884
aa(lp2365
I0
aI21196
aI10561
aI578
aI1579
aI756973
aI424227
aI362588
aI1487
aa(lp2366
I0
aI50
aa(lp2367
I0
aa(lp2368
I0
aa(lp2369
I0
aa(lp2370
I0
aI191
aa(lp2371
I0
aI3552
aI1613
aI343299
aI272211
aI1771
aI18179
aI73548
aI72723
aa(lp2372
I0
aI2386
aI2302
aI6175
aI21464
aI713
aI4541
aI753424
aI261739
aI519512
aa(lp2373
I0
aI10939
aa(lp2374
I0
aI10217
aI9669
aI548
aI1567
aa(lp2375
I0
aI14692
aI8800
aI4753
aI82
aI755789
aI10433
aI432288
aI61275
aI179
aa(lp2376
I0
aI5144
aI72446
aI31103
aI51820
aI17890
aI19669
aI67453
aI17723
aa(lp2377
I0
aI73840
aa(lp2378
I0
aI112
aI829
aI76
aI112181
aI579373
aI16932
aa(lp2379
I0
aI3372
aI49
aI9976
aI139
aI759153
aI79897
aI79406
aa(lp2380
I0
aI667
aa(lp2381
I0
aI216
aI337568
aI30421
aI3510
aa(lp2382
I0
aI26437
aI206
aI59887
aI510756
aI75875
aI37707
aI377
aI48537
aa(lp2383
I0
aI3425
aI83987
aI75303
aI22537
aa(lp2384
I0
aI95
aI2619
aI22708
aI80
aI753360
aI261419
aI520356
aa(lp2385
I0
aI10293
aI253
aI263763
aI411724
aI89666
aI12612
aI12030
aI48808
aI15330
aI2541
aI874
aI401
aa(lp2386
I0
aI7694
aI64
aI314
aI175634
aI422299
aI82067
aa(lp2387
I0
aI1617
aI501
aI59
aI130
aI273840
aI759539
aI2277
aI171978
aI108364
aI57723
aI4207
aI12027
aI125
aa(lp2388
I0
aI3370
aI437060
aI253836
aI76052
aa(lp2389
I0
aI16532
aI763830
aI17437
aI246555
aI506380
aa(lp2390
I0
aI1772
aI76836
aI63
aI15080
aI73501
aI27225
aI53749
aI32163
aI167
aI745170
aI530501
aI108
aa(lp2391
I0
aI9711
aa(lp2392
I0
aI10089
aI91073
aI70394
aI106
aI766553
aI25963
aI610488
aa(lp2393
I0
aI10641
aI58218
aI20512
aI159750
aI2666
aI25917
aI143553
aI4735
aI610217
aI330616
aI438649
aI10019
aI3623
aI67376
aI78
aI9093
aI78
aa(lp2394
I0
aa(lp2395
I0
aI15780
aI3900
aI130
aI762612
aI16539
aI259326
aI160422
aI360940
aI240937
aI66322
aI117176
aI2568
aa(lp2396
I0
aI5673
aI764505
aI21759
aI498
aI73696
aI417614
aI172498
aa(lp2397
I0
aI118
aI764856
aa(lp2398
I0
aI21469
aa(lp2399
I0
aa(lp2400
I0
aI2019
aI117834
aI393
aI1039
aI672240
aI13845
aI139618
aI354426
aI8520
aI1376
aI4930
aI58331
aI1206
aa(lp2401
I0
aI75667
aI16740
aI71757
aI27622
aI97
aI776549
aI227945
aI364545
aa(lp2402
I0
aI13767
aI666304
aI175330
aa(lp2403
I0
aI5544
aI14814
aI45915
aI3335
aa(lp2404
I0
aa(lp2405
I0
aI174825
aI88
aI2350
aI22995
aI258
aI578
aI483977
aI85447
aI65
aI1225
aI22833
aI56961
aI22440
aI870
aa(lp2406
I0
aI75712
aI15888
aI63073
aI29861
aI4380
aI34
aI557
aI1698
aa(lp2407
I0
aa(lp2408
I0
aI6315
aI59845
aa(lp2409
I0
aI10506
aI390
aa(lp2410
I0
aI14130
aa(lp2411
I0
aI13897
aa(lp2412
I0
aI856
aI766402
aI180
aI696778
aI432199
aI11622
aI9459
aI57454
aI4174
aI1458
aI15688
aI1913
aa(lp2413
I0
aI14905
aI86
aI3510
aI46170
aI10165
aa(lp2414
I0
aI267658
aI573
aa(lp2415
I0
aI71886
aI707120
aI158019
aI355156
aa(lp2416
I0
aI14280
aI758141
aI164507
aI347071
aa(lp2417
I0
aI73196
aI30854
aI53944
aI629082
aI416625
aI362473
aa(lp2418
I0
aa(lp2419
I0
aI119826
aI67794
aI71595
aI32550
aI56466
aI33216
aI593
aI55330
aI1210853
aa(lp2420
I0
aI842
aI266584
aI181
aI1067
aI575644
aI360408
aI70
aI1635
aI12348
aI54864
aI1247
aI100183
aI104370
aI5511
aI62490
aI28502
aI50956
aI14901
aI151819
aI23873
aa(lp2421
I0
aI1734
aa(lp2422
I0
aI27103
aI926
aI759535
aI165906
aI347459
aa(lp2423
I0
aI712
aI64
aI763
aI18244
aI6083
aI58372
aa(lp2424
I0
aI345145
aI260511
aI11549
aa(lp2425
I0
aI13124
aa(lp2426
I0
aa(lp2427
I0
aI10571
aa(lp2428
I0
aI3384
aI526
aI7003
aa(lp2429
I0
aI671
aI602371
aI12766
aI19210
aI49148
aI5363
aa(lp2430
I0
aI239
aI305
aI769798
aI809083
aI412067
aa(lp2431
I0
aI763240
aI532826
aI234608
aI3312
aI1269
aa(lp2432
I0
aI41
aI343354
aI346371
aI165784
aI28126
aI4931
aI23
aI48787
aI905
aa(lp2433
I0
aI3083
aI170
aI9790
aI759172
aI262190
aI160071
aI252559
aI3420
aI751
aI10014
aI6219
aI429
aI155940
aI171204
aI112549
aI55905
aa(lp2434
I0
aa(lp2435
I0
aI141
aI11967
aI786
aI56984
aI131
aI145
aI6644
aI695
aI319
aI167497
aI6867
aI944671
aI56
aI4608
aI174638
aI1027
aI17132
aI2905
aI5311
aI1670
aI50856
aI22004
aI66589
aI6964
aI4334
aI27567
aI248008
aI11253
aI55101
aI892
aI5362
aI10460
aI57505
aI5336
aI341
aI3848
aa(lp2436
I0
aI12080
aI14747
aI669
aI53996
aI6721
aI5926
aI4329
aI1161
aI5089
aI77963
aI174766
aI177
aI182
aI9298
aI62234
aI191376
aI61821
aI21784
aI94274
aI139545
aI286320
aI70316
aI18933
aI97899
aa(lp2437
I0
aI9944
aI94247
aI69690
aI14780
aI67637
aa(lp2438
I0
aI61694
aI21
aI9227
aI13538
aI14237
aI3424
aI53240
aI614501
aI261779
aI520184
aa(lp2439
I0
aI728
aI60353
aI10995
aI2506
aI95
aI98944
aI65330
aI9873
aI7267
aa(lp2440
I0
aI92888
aI69709
aI71718
aI9825
aI8279
aI19756
aI85520
aI57099
aa(lp2441
I0
aI321
aI4669
aI87183
aI245876
aI18133
aI1641
aI409
aI14028
aI49828
aI168504
aI8159
aa(lp2442
I0
aI327
aa(lp2443
I0
aa(lp2444
I0
aI2901
aI752239
aI695645
aI362276
aI155827
aa(lp2445
I0
aI13469
aI438
aI756045
aI15336
aa(lp2446
I0
aa(lp2447
I0
aI53
aI761628
aI166606
aI350697
aa(lp2448
I0
aI61
aI345495
aI260893
aI63609
aI168542
aI41
aI12434
aI24269
aI2241
aI1339
aI48762
aI3604
aI10274
aI70
aI5485
aa(lp2449
I0
aI99711
aI65526
aI768590
aI431053
aI450018
aI58530
aI6448
aI121
aI12776
aI4610
aI82688
aI2253
aa(lp2450
I0
aI74451
aI1210
aI695260
aI5764
aI619541
aI60477
aI521535
aa(lp2451
I0
aa(lp2452
I0
aI254
aI9879
aI696
aI236558
aI334927
aI79599
aI3828
aa(lp2453
I0
aI60775
aI10580
aI2894
aI596497
aI173688
aI95
aI1369
aa(lp2454
I0
aI92
aI1112
aI15618
aI49858
aI1318
aa(lp2455
I0
aI60309
aI11193
aI10817
aI2847
aI15425
aa(lp2456
I0
aI695
aI204
aI1667
aI763264
aa(lp2457
I0
aI332559
aI265148
aa(lp2458
I0
aI75270
aI335
aa(lp2459
I0
aI7630
aI224
aI172
aI584488
aI72843
aI36566
aI46796
aI45
aI4552
aI407
aI13629
aI2651
aa(lp2460
I0
aI1694
aa(lp2461
I0
aI85539
aI4452
aI6692
aI222
aI755220
aI795578
aI155394
aa(lp2462
I0
aa(lp2463
I0
aa(lp2464
I0
aI414
aa(lp2465
I0
aI448
aI64479
aa(lp2466
I0
aI16605
aI146
aI752670
aI154526
aa(lp2467
I0
aI60402
aI15674
aI4178
aI11138
aI2436
aI682232
aI10073
aI50489
aI370043
aI76497
aI246348
aI89
aI2194
aI1221
aI14480
aI1774
aI17876
aI302
aI3058
aI146
aI62410
aI1361
aI1531
aI152541
aI3066
aa(lp2468
I0
aI792
aa(lp2469
I0
aI96
aI678134
aI77641
aI2110
aI11370
aI99
aI12257
aI71519
aI434880
aI5068
aI792
aa(lp2470
I0
aI62701
aI5321
aI18862
aI685951
aI419924
aI362645
aa(lp2471
I0
aI89492
aI69378
aI15252
aI56714
aI29786
aa(lp2472
I0
aI271
aI14167
aI1172
aI45082
aI617
aI87287
aI8009
aI15422
aI16217
aI47513
aI2462
aI2791
aI1538
aI1444
aI454
aI26265
aI2622
aI499
aI85705
aI58230
aI248724
aI19197
aI101709
aI76389
aI1026761
aI11694
aI5424
aa(lp2473
I0
aI137
aa(lp2474
I0
aa(lp2475
I0
aI3850
aI147304
aa(lp2476
I0
aI90907
aI70585
aI71866
aI62
aI2407
aI1886
aI30942
aI85302
aI2556
aI58054
aI184093
aI440
aI83038
aI103218
aI4704
aa(lp2477
I0
aI259
aI1275
aI3142
aI218
aI325749
aI254778
aI18141
aI21
aI60961
aI34243
aI53203
aI3797
aa(lp2478
I0
aI6644
aI12669
aI66653
aa(lp2479
I0
aI967
aI261269
aI268515
aa(lp2480
I0
aI54439
aI2610
aI189965
aI516868
aI8533
aI245690
aa(lp2481
I0
aI205
aI5638
aI699157
aI15598
aI246595
aI158768
aI180930
aI12999
aI11420
aI80899
aI93086
aI221115
aI14687
aa(lp2482
I0
aa(lp2483
I0
aI702355
aI872869
aI149346
aa(lp2484
I0
aI64084
aI25340
aI523
aI490
aI15
aI572525
aI103564
aa(lp2485
I0
aI606284
aI172856
aa(lp2486
I0
aI84
aI943
aI605601
aI13309
aI6458
aI933
aI58408
aI5342
aa(lp2487
I0
aI457
aI214
aI669815
aI160250
aI1056
aI3375
aI7016
aI8903
aI1702
aI14936
aI114
aI47595
aI20012
aI3000
aI13414
aI213
aI216207
aI2062
aI4768
aa(lp2488
I0
aI17086
aI223
aI671044
aI3869
aI1026113
aI4419
aa(lp2489
I0
aI13940
aI687291
aI253877
aI329159
aI538644
aI1496
aa(lp2490
I0
aI75
aI668377
aI78814
aI2551
aI5773
aa(lp2491
I0
aa(lp2492
I0
aI547
aI382
aI755204
aI2058
aI418727
aI170849
aI19951
aI5110
aI1335
aI67807
aI13965
aa(lp2493
I0
aI82340
aI7013
aI768037
aI3043
aI632190
aa(lp2494
I0
aI71677
aI535354
aI163120
aI3427
aa(lp2495
I0
aa(lp2496
I0
aI219
aI148
aI248535
aI354665
aI169766
aa(lp2497
I0
aI61
aI62244
aI73512
aI33697
aI52893
aI9072
aI83
aI24853
aI84927
aI57155
aa(lp2498
I0
aI2235
aI692592
aI261100
aI698
aa(lp2499
I0
aI3702
aI24922
aI117
aI680078
aI416805
aa(lp2500
I0
aI55
aI594049
aI21053
aI141495
aI23564
aI6611
aI39
aI59180
aa(lp2501
I0
aI81009
aI14349
aI13562
aI61223
aI183493
aI247016
aI791721
aI81451
aI235843
aI90137
aa(lp2502
I0
aI16274
aI687447
aI433416
aI361245
aa(lp2503
I0
aI14531
aI1950
aI13928
aI188
aI175486
aI39
aI741726
aI431922
aI365381
aI155768
aa(lp2504
I0
aI700821
aa(lp2505
I0
aa(lp2506
I0
aa(lp2507
I0
aI212
aI596618
aI6902
aa(lp2508
I0
aI19931
aI593843
aI160237
aI13907
aI2007
aI2209
aI9443
aI72226
aI16721
aI230344
aa(lp2509
I0
aI12988
aI766
aI485
aa(lp2510
I0
aa(lp2511
I0
aI15619
aa(lp2512
I0
aa(lp2513
I0
aI229
aa(lp2514
I0
aI19287
aI574361
aI173887
aa(lp2515
I0
aI12751
aI72038
aI626539
aI170643
aa(lp2516
I0
aa(lp2517
I0
aI9976
aI2456
aI1395
aI2223
aI74654
aI5585
aI3325
aI518670
aI103603
aI566998
aI607193
aa(lp2518
I0
aI828
aI248330
aI32204
aI691
aI281
aI1503
aI61358
aI158012
aI4503
aa(lp2519
I0
aI760
aI153477
aa(lp2520
I0
aI365
aI701351
aI70877
aI79242
aa(lp2521
I0
aI702311
aI590996
aI450823
aI83539
aa(lp2522
I0
aa(lp2523
I0
aI242
aI702391
aI71768
aI187
aI354455
aI342
aI923
aI13757
aI81873
aI2301
aI1959
aI14135
aI63041
aI1231
aI20747
aI360
aI46379
aa(lp2524
I0
aI378
aI257817
aI264514
aa(lp2525
I0
aI12978
aI72
aI15276
aI335
aI672157
aI15295
aI401581
aI172910
aa(lp2526
I0
aI4895
aa(lp2527
I0
aI958
aI161
aI69939
aI84
aI627386
aa(lp2528
I0
aI506
aI78414
aI716720
aI333402
aI361362
aa(lp2529
I0
aI1386
aI623
aI696567
aI3493
aI432028
aI153152
aI519443
aI20780
aI8443
aI54472
aI6661
aa(lp2530
I0
aa(lp2531
I0
aI46
aI2252
aI680858
aI93794
aa(lp2532
I0
aI505
aI947
aI694954
aI16933
aI52633
aI99317
aI7019
aa(lp2533
I0
aI96906
aI2045
aI429
aI6827
aI1280
aa(lp2534
I0
aa(lp2535
I0
aI73981
aI8364
aI231
aI765998
aI553503
aI479995
aa(lp2536
I0
aI2693
aI3969
aI1719
aI320
aI561
aI187
aI688139
aI13764
aI247378
aI156803
aI168277
aI86047
aI748
aI23626
aI633
aI62990
aI56
aI6413
aI3497
aI1342
aI1446
aI842
aI2382
aI244628
aI5835
aI15678
aI2257
aI443
aI56571
aI7967
aI126
aI13724
aI385
aI153
aI632
aa(lp2537
I0
aI1266
aI2097
aI12956
aa(lp2538
I0
aI4281
aI73945
aI24963
aI59420
aI299
aa(lp2539
I0
aI78010
aI26002
aI46540
aI7788
aI27550
aI1022
aI86620
aI686
aa(lp2540
I0
aI686270
aI409377
aI4173
aa(lp2541
I0
aI40
aa(lp2542
I0
aa(lp2543
I0
aI6708
aa(lp2544
I0
aa(lp2545
I0
aI13655
aI8107
aI2826
aI14
aI78
aI178435
aI324984
aI181654
aI1198
aI864
aa(lp2546
I0
aI10267
aa(lp2547
I0
aI1875
aa(lp2548
I0
aI65873
aI16860
aI189
aI761852
aI266386
aI670840
aa(lp2549
I0
aI20274
aI765610
aI597029
aI11947
aa(lp2550
I0
aa(lp2551
I0
aI59034
aa(lp2552
I0
aI2794
aI824
aI673
aI579214
aI15996
aI10188
aI360
aI1712
aI49533
aI12258
aI7715
aI374
aI922
aI763
aI49
aI63035
aI14993
aI968
aa(lp2553
I0
aI13946
aI186
aI512470
aI87605
aI9805
aI1840
aI9657
aI100
aI70148
aI4315
aI3070
aI342
aI22
aI1184
aa(lp2554
I0
aI29013
aI1264978
aa(lp2555
I0
aI157
aI67
aI411
aI284
aI3141
aI579620
aI77635
aI962
aI1049
aI9053
aI8087
aI62292
aI84346
aI15462
aa(lp2556
I0
aI50541
aI2151
aI17841
aI6310
aI3402
aa(lp2557
I0
aI2138
aI611931
aI95198
aI5806
aI34
aI8664
aI313788
aI3265
aa(lp2558
I0
aI9044
aI20625
aI100
aI4550
aI759670
aI263537
aI568434
aI23332
aa(lp2559
I0
aI2976
aI84
aI196
aI466
aI438058
aI440670
aI160070
aI356710
aa(lp2560
I0
aI1275
aI85
aI363
aI3043
aI445399
aa(lp2561
I0
aI110
aI766057
aa(lp2562
I0
aI269
aa(lp2563
I0
aa(lp2564
I0
aI17262
aI591764
aI165624
aa(lp2565
I0
aa(lp2566
I0
aI12593
aI21092
aI46625
aI18524
aI3005
aI17472
aI83335
aI59175
aa(lp2567
I0
aa(lp2568
I0
aa(lp2569
I0
aI254
aI157
aI765771
aa(lp2570
I0
aI511022
aI81049
aI389
aI1779
aI906
aI1194
aI5548
aI79
aI28
aI85618
aI82060
aI350676
aI5294
aI471
aa(lp2571
I0
aa(lp2572
I0
aI2287
aI17318
aI60871
aI8818
aI144
aI16872
aI571
aa(lp2573
I0
aa(lp2574
I0
aI6422
aI5147
aI6624
aI64
aI758462
aI596297
aI785
aI449770
aI2092
aI527
aa(lp2575
I0
aI18007
aI4188
aa(lp2576
I0
aI15580
aI87145
aI760036
aI281172
aI102927
aa(lp2577
I0
aI8159
aI15989
aa(lp2578
I0
aI5963
aI260300
aI601911
aI505807
aa(lp2579
I0
aI840
aI16285
aI707264
aI389
aI311376
aI263587
aI37074
aI42447
aI1495
aI1690
aI3317
aI1040
aI1401
aI2217
aI2886
aa(lp2580
I0
aI20516
aI1101
aa(lp2581
I0
aI277
aI39461
aI48414
aI434
aI1557
aI34135
aI74721
aI1092
aI509
aa(lp2582
I0
aI14945
aI54879
aI20732
aI2370
aI1504
aa(lp2583
I0
aI11052
aI801
aI121
aI660496
aI11469
aI146
aI20789
aI46745
aa(lp2584
I0
aa(lp2585
I0
aI28
aa(lp2586
I0
aa(lp2587
I0
aI9666
aI55101
aI709863
aI88107
aI168536
aI5890
aa(lp2588
I0
aa(lp2589
I0
aI229
aI761497
aI131
aI512832
aI530166
aa(lp2590
I0
aI2054
aI703928
aI101804
aI921528
aa(lp2591
I0
aI14583
aI52930
aI1914
aI1089
aI1328
aI1684
aI18311
aI1684
aI1369
aI159
aI905419
aI18319
aI363958
aI196
aa(lp2592
I0
aI2178
aI138
aI764348
aI18450
aI928091
aa(lp2593
I0
aI20675
aa(lp2594
I0
aI1220
aa(lp2595
I0
aI1853
aI758572
aI259543
aI4477
aI16990
aI67524
aI480
aa(lp2596
I0
aI21536
aI2426
aa(lp2597
I0
aI18889
aI102
aa(lp2598
I0
aa(lp2599
I0
aI10138
aI479
aI767153
aI632514
aI397005
aa(lp2600
I0
aa(lp2601
I0
aI1018
aI768349
aI549223
aa(lp2602
I0
aI61403
aI775403
aI532585
aI343578
aa(lp2603
I0
aI575
aI16170
aI1064
aI61026
aI1678
aI1817
aI1650
aI8360
aI18671
aa(lp2604
I0
aI12248
aI3029
aa(lp2605
I0
aI2000
aI496363
aI79001
aa(lp2606
I0
aa(lp2607
I0
aI166838
aI10
aI5072
aI1730
aa(lp2608
I0
aI946
aI765905
aI5633
aa(lp2609
I0
aa(lp2610
I0
aI762131
aI502477
aI364939
aI159059
aI523
aa(lp2611
I0
aI11981
aI55427
aI2120
aI232
aI516184
aI209
aI556
aI722494
aI409125
aa(lp2612
I0
aa(lp2613
I0
aI11408
aa(lp2614
I0
aI58253
aI10578
aI11347
aI60931
aI19539
aI10656
aI61004
aa(lp2615
I0
aa(lp2616
I0
aI57
aI760981
aI265080
aa(lp2617
I0
aa(lp2618
I0
aa(lp2619
I0
aI56933
aI2613
aI9054
aI19069
aI84988
aI2060
aI57333
aI271829
aI13236
aa(lp2620
I0
aI11663
aI59153
aI9393
aI10914
aI60919
aI32795
aI57098
aI536776
aI580529
aa(lp2621
I0
aI227
aI54732
aI7874
aI15499
aI61029
aI6186
aI93792
aI44
aI66
aI24
aI606897
aI310
aI158617
aI250902
aI26
aI28206
aI100418
aI52233
aI14829
aI2831
aI149681
aI4390
aa(lp2622
I0
aI49085
aI344234
aI2183
aI257724
aI87407
aI356834
aI7358
aa(lp2623
I0
aI418
aI39
aa(lp2624
I0
aI757237
aa(lp2625
I0
aI53586
aI527651
aI163034
aI1545
aI89
aI90
aI301
aI348
aI3527
aI3457
aI6210
aI238761
aI10157
aI3053
aa(lp2626
I0
aI215
aI762957
aI502
aI3430
aI412520
aI530883
aI2300
aI11686
aI76631
aa(lp2627
I0
aI2087
aI1113
aI446097
aI159358
aa(lp2628
I0
aI9463
aI259
aI95
aI683962
aI261339
aI245
aI19312
aI60089
aI644
aI43084
aI58972
aI6403
aI40
aa(lp2629
I0
aI49947
aa(lp2630
I0
aI3081
aI11194
aI12088
aI196
aI60056
aI350378
aI17700
aI71
aI1844
aa(lp2631
I0
aI14869
aI419848
aI186290
aI3062
aI84
aa(lp2632
I0
aI815
aI760
aI775504
aI243664
aa(lp2633
I0
aI2758
aI2524
aI524305
aI94403
aI6377
aI59777
aI4598
aa(lp2634
I0
aI2945
aI2957
aI1016
aI1661
aI826
aI3694
aI3264
aI912
aI13635
aI90049
aI59333
aI186441
aI75520
aI9034
aI7805
aI92563
aI138672
aI6918
aI337983
aa(lp2635
I0
aI12294
aI6110
aI10025
aI60961
aI17940
aI677704
aI91
aI263216
aI194260
aI53203
aa(lp2636
I0
aI386
aa(lp2637
I0
aI325
aI595862
aI313
aI21
aI29
aI700629
aI481732
aa(lp2638
I0
aI3706
aI708443
aI585485
aa(lp2639
I0
aI626
aa(lp2640
I0
aI8600
aI18860
aI78798
aa(lp2641
I0
aI17
aI482
aI1647
aI716
aI687733
aI4156
aI553697
aa(lp2642
I0
aI98
aI490
aI172
aI53549
aI72
aI440129
aI97350
aI81277
aa(lp2643
I0
aI2836
aI708270
aa(lp2644
I0
aI445410
aI94464
aI1677
aI7086
aI67415
aI80151
aI1295
aa(lp2645
I0
aI45715
aI3698
aI5361
aI705790
aI260383
aI146968
aI524413
aa(lp2646
I0
aa(lp2647
I0
aI8819
aI4707
aa(lp2648
I0
aI8842
aI1890
aI16352
aI10087
aI77
aI742804
aI517103
aI11144
aI391
aI474
aI152
aI5069
aa(lp2649
I0
aI11691
aI15486
aI61438
aI420
aI16444
aI101
aI126
aI440
aI677868
aI517292
aI28129
aa(lp2650
I0
aI11757
aI1084
aI701
aI699455
aI256876
aI361853
aa(lp2651
I0
aI2825
aI1922
aI2104
aI1504
aI18
aI3905
aa(lp2652
I0
aI8668
aI588
aI530
aI574
aI21653
aI129
aI89874
aI56187
aI11121
aI270579
aI5009
aa(lp2653
I0
aI10417
aI15321
aI61191
aI19732
aI9557
aI77901
aI257234
aI12341
aI569521
aI35578
aI138328
aa(lp2654
I0
aI2889
aa(lp2655
I0
aI2409
aI10940
aI4225
aI15444
aI197
aI1141
aI2084
aI57
aI488757
aI2185
aI9472
aa(lp2656
I0
aI2765
aI138
aI11360
aI3923
aI141
aI424226
aI161650
aI91856
aI129
aa(lp2657
I0
aI11080
aI308
aI593362
aI89915
aI8781
aI4995
aa(lp2658
I0
aI20239
aI250
aI141
aI1358
aI127
aI5024
aI672629
aI2232
aI6454
aI204
aI244708
aI2754
aI598
aI40
aI68
aI95
aI128
aI2693
aI5676
aI77286
aa(lp2659
I0
aI7900
aa(lp2660
I0
aI4616
aa(lp2661
I0
aI11880
aI16166
aI56469
aI615229
aI2657
aa(lp2662
I0
aI5153
aa(lp2663
I0
aI283
aI90984
aI17616
aI1836
aI62093
aI25
aI170539
aI61
aI92
aI805542
aI65018
aI522273
aa(lp2664
I0
aI707522
aI260988
aI67844
aI248177
aI3587
aI354
aI37237
aI218218
aI2743
aI1211
aa(lp2665
I0
aI603892
aI421760
aI3650
aI1517
aI7375
aa(lp2666
I0
aI8250
aI7003
aI104
aI694399
aI85507
aI507023
aa(lp2667
I0
aI4584
aI225
aI1308
aI2058
aa(lp2668
I0
aI1989
aI9377
aI20110
aI47673
aI2111
aI355
aI609717
aI275451
aI801
aI129
aI58750
aI6996
aa(lp2669
I0
aI3809
aa(lp2670
I0
aI3368
aa(lp2671
I0
aI2237
aa(lp2672
I0
aI698
aa(lp2673
I0
aI474
aI48
aI652
aa(lp2674
I0
aI7247
aI7458
aI50
aI64
aI64
aI155
aI338117
aI89504
aI70
aI125
aI591136
aa(lp2675
I0
aI555
aa(lp2676
I0
aa(lp2677
I0
aI429463
aI162385
aI12738
aa(lp2678
I0
aI193
aa(lp2679
I0
aI368
aI946
aI989
aI1301
aI4663
aI5706
aI758019
aI177095
aI274364
aa(lp2680
I0
aa(lp2681
I0
aI341
aI113091
aI318422
aI164952
aI5961
aI954
aa(lp2682
I0
aI2740
aI2513
aI931
aI14206
aI13
aI89728
aI61590
aI249391
aI40430
aI156398
aI1033879
aa(lp2683
I0
aI398
aI162
aI1724
aI677
aI135
aI698878
aI261771
aI68589
aI4313
aI603771
aI193
aa(lp2684
I0
aI3786
aI3795
aI10992
aI53467
aI14992
aI22109
aI687
aI60890
aI13505
aa(lp2685
I0
aI202
aI10
aI220
aa(lp2686
I0
aa(lp2687
I0
aI118
aa(lp2688
I0
aI3045
aa(lp2689
I0
aI224
aI63
aI699378
aI447316
aI577293
aa(lp2690
I0
aI545
aI2254
aI22
aI61639
aI19756
aI149
aI9619
aI59880
aI11858
aI182133
aa(lp2691
I0
aI1509
aI760216
aI19815
aI271248
aa(lp2692
I0
aI215
aI2305
aI13083
aI50891
aI37
aI698
aI289
aI33438
aI61760
aI11745
aI600
aI2615
aI14
aI324
aI602367
aI351
aI862723
aI15069
aa(lp2693
I0
aa(lp2694
I0
aI2661
aI1294
aI3310
aI2083
aI736
aI701
aI233
aI751977
aI889756
aa(lp2695
I0
aI133
aI27
aI235
aI714
aI8372
aI60884
aI19467
aI10610
aI61231
aI249902
aI96753
aI25848
aI567774
aa(lp2696
I0
aI2022
aI757503
aa(lp2697
I0
aI695242
aa(lp2698
I0
aa(lp2699
I0
aI10239
aI6873
aI90
aI689846
aI431320
aI364559
aI154346
aa(lp2700
I0
aI755547
aa(lp2701
I0
aa(lp2702
I0
aI991
aI11196
aI98
aI18
aI244
aI487166
aI167392
aI540
aI314
aI13230
aI8081
aI82
aI238884
aI1790
aI86197
aa(lp2703
I0
aa(lp2704
I0
aI13159
aI341
aI606
aI1199
aI2829
aI1327
aI5053
aI1252
aI6515
aa(lp2705
I0
aI111
aI8981
aI409985
aI2634
aI211
aI1230026
aa(lp2706
I0
aI254
aI106
aI499558
aI180390
aI3113
aI4956
aI235040
aI11031
aI296
aI3563
aI538
aI9615
aI60501
aI386
aI4222
aI1235
aI528050
aI9145
aa(lp2707
I0
aI3169
aI495
aI747722
aI518053
aa(lp2708
I0
aI176
aI379
aI314
aI749990
aa(lp2709
I0
aI9146
aI741655
aI175032
aI264045
aI1456
aI249
aI940
aI3311
aI466
aI2373
aI333826
aI96945
aI70819
aI20221
aa(lp2710
I0
aI8285
aI45274
aI1077
aI18121
aI15154
aI982
aI1690
aI377
aI59707
aI268245
aI16613
aa(lp2711
I0
aI728
aI72
aI7545
aI64734
aI102
aI489
aI274
aI325220
aI16966
aI178883
aI1417
aI6678
aI57105
aI861
aI444
aI8291
aI11283
aI4765
aI233923
aI20989
aI70419
aI27095
aI695
aI52498
aI97277
aI2188
aI1110
aa(lp2712
I0
aI799
aI19412
aI14884
aI59219
aI11753
aI251973
aa(lp2713
I0
aI964
aa(lp2714
I0
aI642
aI12590
aI599121
aI103533
aI325924
aI532765
aa(lp2715
I0
aI50588
aI459
aI19536
aI8740
aI1737
aI2847
aI266
aI668632
aI268808
aI156662
aI2616
aI2459
aI3160
aI75720
aI2606
aI4402
aI29868
aI308628
aI16697
aI19173
aI65126
aa(lp2716
I0
aI51260
aI135
aI347702
aI262
aI27786
aI89407
aI424
aI1287
aI1595
aI241
aI694312
aI410052
aa(lp2717
I0
aI20064
aI272
aI394
aI678248
aI341654
aI600099
aI17312
aI4268
aa(lp2718
I0
aa(lp2719
I0
aI48
aI262
aI203
aI1508
aI742848
aI885624
aI5004
aI4563
aI53177
aa(lp2720
I0
aI604
aI694997
aI530714
aa(lp2721
I0
aI49113
aI15
aI32205
aI815
aI1979
aI667196
aI141
aI867021
aa(lp2722
I0
aI149
aI659644
aI269335
aI4621
aI2052
aI60820
aI1703
aI4541
aI35898
aI43865
aI1019
aI299
aI16874
aI56
aI19013
aI64208
aI1512
aa(lp2723
I0
aI414
aI46076
aI823
aI361173
aI182580
aI896
aI268
aI282
aI7456
aI1259
aI93
aI395657
aI21278
aI5243
aa(lp2724
I0
aI19533
aI273
aI679343
aI16810
aI153225
aI170501
aa(lp2725
I0
aI886
aI164
aI695199
aa(lp2726
I0
aa(lp2727
I0
aI2580
aI20055
aI11392
aI61370
aI9756
aI183626
aI91276
aI92349
aI130886
aa(lp2728
I0
aI6132
aI1446
aI1331
aI119
aI1027703
aI10938
aI9877
aI5035
aa(lp2729
I0
aa(lp2730
I0
aI143
aI1467
aI693526
aI532220
aa(lp2731
I0
aI2988
aI307
aI19411
aI5340
aI672733
aI525972
aa(lp2732
I0
aI3383
aI71
aI100
aI692956
aI16244
aI706
aI47
aI35
aI851453
aa(lp2733
I0
aI348028
aI17163
aa(lp2734
I0
aI6475
aI13
aI17467
aI411
aI347
aI730
aI498
aI1026
aI220
aI674623
aI191208
aI687442
aa(lp2735
I0
aa(lp2736
I0
aI4856
aI263
aI9038
aI1105
aI56
aI843
aI1136540
aa(lp2737
I0
aI3634
aI9021
aa(lp2738
I0
aI259868
aI439440
aI168453
aI178609
aI3173
aa(lp2739
I0
aa(lp2740
I0
aa(lp2741
I0
aa(lp2742
I0
aI6066
aI81
aI688123
aI263
aI268340
aI343110
aI11589
aI484
aI150814
aI5557
aI15399
aI2392
aI59181
aa(lp2743
I0
aa(lp2744
I0
aa(lp2745
I0
aa(lp2746
I0
aa(lp2747
I0
aI286
aI2544
aI244
aI350497
aI69605
aI2422
aa(lp2748
I0
aa(lp2749
I0
aI15664
aI215
aI675945
aI48
aI867764
aI17234
aI1758
aa(lp2750
I0
aI687476
aI173061
aI246497
aI2464
aI27112
aI2668
aI7287
aI53596
aI336
aI3872
aa(lp2751
I0
aI512967
aI429247
aI2210
aa(lp2752
I0
aI107
aI1065053
aa(lp2753
I0
aI6022
aI1399
aI13141
aI2037
aI60388
aa(lp2754
I0
aI774
aI14747
aI59514
aI10747
aI191547
aI146813
aI24279
aI138170
aI344591
aI18703
aa(lp2755
I0
aI1812
aI750
aI1119
aI434
aI1340
aI581239
aI363130
aa(lp2756
I0
aI680426
aI2802
aI1178
aI511546
aa(lp2757
I0
aa(lp2758
I0
aI682069
aI165293
aI177569
aI512836
aI5439
aI2372
aI13304
aI6642
aI59332
aI6184
aI4300
aI1443
aI1958
aa(lp2759
I0
aI680412
aI14546
aI507548
aa(lp2760
I0
aa(lp2761
I0
aI5349
aI1445
aI1406
aI1000
aI9144
aI2047
aI55074
aI361137
aI256859
aI518981
aI244511
aa(lp2762
I0
aa(lp2763
I0
aI69917
aa(lp2764
I0
aI854
aI1274
aI463
aI132
aI135
aI676014
aI3161
aI880960
aa(lp2765
I0
aa(lp2766
I0
aI25
aI106
aI849
aI518
aI677596
aI515377
aI267845
aa(lp2767
I0
aa(lp2768
I0
aI1537
aI677597
aI257487
aI510468
aI4085
aI1925
aI2585
aI708
aI7897
aI21370
aI74572
aI34
aI55886
aa(lp2769
I0
aI585
aI676962
aI550
aI1346
aI859383
aI92293
aa(lp2770
I0
aI1798
aa(lp2771
I0
aI10251
aI70160
aI243113
aI111799
aI145891
aI334699
aI22183
aI78655
aI85272
aI180024
aI266523
aa(lp2772
I0
aI519
aI392
aI520
aI7680
aI59728
aI11871
aI7237
aI192
aI123
aI600184
aI187432
aI332708
aI241617
aa(lp2773
I0
aI2357
aI3994
aI605
aI1838
aa(lp2774
I0
aI3939
aI241496
aI78590
aI28407
aI60429
aI178
aI152
aI172243
aI698973
aI161547
aa(lp2775
I0
aa(lp2776
I0
aI1047
aI15
aI119
aI137
aI671479
aI170661
aI356033
aI4224
aa(lp2777
I0
aI668282
aa(lp2778
I0
aI251081
aI453
aI8137
aI312
aI58
aI659722
aI253382
aa(lp2779
I0
aI767
aI1362
aI575228
aI334566
aa(lp2780
I0
aI1457
aI1070
aI118
aI55
aI664507
aI169393
aI266951
aI2118
aI2693
aI1272
aI4564
aI4751
aa(lp2781
I0
aI56852
aI11664
aI265802
aI97524
aI59162
aI31817
aI330626
aI79910
aI333781
aI170686
aa(lp2782
I0
aa(lp2783
I0
aI3240
aI222
aa(lp2784
I0
aI55921
aI2187
aa(lp2785
I0
aI2462
aI78
aI660637
aa(lp2786
I0
aI61
aI238
aI486146
aI70855
aa(lp2787
I0
aI243
aI1043
aI233
aI663216
aI168786
aI258974
aI5040
aa(lp2788
I0
aI739
aa(lp2789
I0
aI286
aI564719
aI277732
aI2331
aI70013
aI76
aa(lp2790
I0
aI217
aI10903
aI242910
aI110
aI28148
aI11175
aI86840
aI85823
aI48163
aI342541
aI22258
aI15126
aa(lp2791
I0
aI12008
aI206
aI604308
aI506593
aa(lp2792
I0
aI1212
aI1380
aI1019
aI123
aI539993
aa(lp2793
I0
aI6047
aI11028
aI174314
aI69212
aI27911
aI92
aI23
aI18
aI779011
aa(lp2794
I0
aI9460
aI5760
aI242950
aI29485
aI152102
aI11227
aI67295
aI342842
aI19023
aI108734
aI76136
aa(lp2795
I0
aa(lp2796
I0
aI613772
aI614723
aI145490
aa(lp2797
I0
aI36
aI10885
aI183
aI608859
aI420387
aI524483
aa(lp2798
I0
aI1862
aI451
aI609802
aI249301
aI253203
aI2535
aa(lp2799
I0
aI3924
aI1352
aI613177
aI4153
aI171295
aI761823
aa(lp2800
I0
aa(lp2801
I0
aI1211
aI44
aI6800
aI48
aI129
aI274585
aI232866
aI358319
aI82
aa(lp2802
I0
aI11270
aI242856
aI20793
aI79912
aI95424
aI82643
aI10445
aI200
aI842991
aa(lp2803
I0
aa(lp2804
I0
aI111
aa(lp2805
I0
aI1878
aI5380
aa(lp2806
I0
aI611767
aI519754
aI372
aI61
aa(lp2807
I0
aa(lp2808
I0
aI4668
aI286215
aI228995
aI257642
aI68
aI17680
aI144741
aI2317
aI433633
aI4247
aa(lp2809
I0
aI656
aI172
aI610930
aI427662
aI363178
aI74185
aa(lp2810
I0
aI1121
aI9907
aI237
aa(lp2811
I0
aI89
aI16304
aI297
aI565
aa(lp2812
I0
aI611682
aI420443
aI363002
aI150303
aI8808
aI9295
aI1669
aI269
aI630
aI2971
aa(lp2813
I0
aI404
aI507662
aI279370
aI91
aI70427
aa(lp2814
I0
aI216
aI28
aI506098
aI7668
aa(lp2815
I0
aI571
aI167
aI20
aI609849
aI508816
aa(lp2816
I0
aI1649
aI606181
aI252981
aI250781
aI3723
aI993
aI33612
aI23
aI213859
aa(lp2817
I0
aa(lp2818
I0
aI117
aI611154
aI174920
aI359218
aa(lp2819
I0
aa(lp2820
I0
aI216
aI1938
aI127
aI499654
aI365761
aI17760
aI50654
aI378
aI24
aI32762
aI273
aI268
aI79587
aI60033
aI85723
aI167405
aI2118
aa(lp2821
I0
aI156910
aa(lp2822
I0
aI125
aI28
aI605539
aI508303
aa(lp2823
I0
aI3495
aI163319
aa(lp2824
I0
aI3909
aa(lp2825
I0
aa(lp2826
I0
aa(lp2827
I0
aI188929
aI74601
aI7270
aI733
aI403
aI101
aI695454
aI502077
aa(lp2828
I0
aI488
aI606543
aI349431
aI81
aI418842
aI163007
aa(lp2829
I0
aI604959
aI258990
aI236467
aa(lp2830
I0
aI250284
aI29305
aI149273
aI3187
aI86270
aa(lp2831
I0
aI275
aI167268
aa(lp2832
I0
aI149164
aI3228
aI13
aI36
aI78
aI801488
aI451
aa(lp2833
I0
aI600771
aI506823
aa(lp2834
I0
aI243
aI601973
aI506707
aa(lp2835
I0
aI323
aI62
aI601555
aI257408
aI153578
aI93920
aI1169
aa(lp2836
I0
aa(lp2837
I0
aI8317
aI328788
aI266332
aI2991
aI3702
aI4860
aI69332
aa(lp2838
I0
aI95395
aI19108
aI142097
aI9394
aI1341
aI73414
aI337585
aI22010
aI14188
aI138542
aI180182
aI266296
aI18862
aa(lp2839
I0
aI97370
aI84138
aI5757
aI1442
aI666585
aI363663
aI169675
aI3374
aa(lp2840
I0
aI204
aI225
aI681154
aI265437
aa(lp2841
I0
aI127
aa(lp2842
I0
aa(lp2843
I0
aI7980
aI894
aI68
aI844944
aI104543
aI407910
aa(lp2844
I0
aI892
aI692021
aI11729
aI35
aI1691
aa(lp2845
I0
aI1774
aI796809
aI492188
aI87799
aa(lp2846
I0
aI12774
aI194
aI748974
aI538378
aI1091
aI11153
aI13
aI7785
aI9
aI189
aI47591
aI15516
aa(lp2847
I0
aI140
aI335553
aI349494
aI618441
aI66001
aa(lp2848
I0
aI2078
aI74697
aI29498
aI153797
aI303
aI675148
aI447162
aa(lp2849
I0
aI912
aI33474
aI76028
aI71976
aI97453
aI76879
aI333563
aI34145
aa(lp2850
I0
aI78768
aI28271
aI105
aI88
aI572262
aI345111
aI2888
aI13436
aI152392
aI3094
aI3401
aI30576
aI18
aI52223
aI4560
aI725
aI105
aa(lp2851
I0
aI80
aI46
aI170
aI850200
aa(lp2852
I0
aa(lp2853
I0
aa(lp2854
I0
aI14312
aI1770
aa(lp2855
I0
aI25057
aI582813
aI191903
aI466
aI785
aI70215
aI8364
aI2033
aa(lp2856
I0
aI32010
aI3241
aI211
aI776257
aI507072
aI314
aa(lp2857
I0
aI33335
aa(lp2858
I0
aI31881
aI257
aI349
aI653
aI115
aI39
aI327195
aI72
aI694658
aI241322
aa(lp2859
I0
aI2157
aa(lp2860
I0
aa(lp2861
I0
aa(lp2862
I0
aI320
aI80714
aI83745
aI19288
aI1177325
aa(lp2863
I0
aI671797
aI619805
aa(lp2864
I0
aI1523
aI1713
aI132
aI848601
aa(lp2865
I0
aI31769
aI1788
aI72412
aI1455
aI70920
aI80304
aI200
aI77
aI641661
aI488856
aa(lp2866
I0
aI7218
aI850020
aI344707
aI172117
aa(lp2867
I0
aI31869
aI601896
aI106
aI433
aa(lp2868
I0
aI1120
aI54993
aI332
aI1302
aI50
aI84
aI798819
aa(lp2869
I0
aa(lp2870
I0
aI587002
aI167104
aI19315
aI11697
aI146891
aI9307
aI1794
aI73925
aI5827
aI8392
aI153429
aI5656
aa(lp2871
I0
aI56505
aI17813
aI22596
aI103
aI111
aI772338
aI403276
aa(lp2872
I0
aI56
aI105
aI70351
aI605959
aI499435
aI118
aa(lp2873
I0
aI32038
aI672
aI357
aI218
aI1043
aI224
aI660014
aI257150
aa(lp2874
I0
aI581498
aI99220
aI18544
aI877
aI41055
aI126
aa(lp2875
I0
aI31302
aI1389
aI858
aI50
aI843832
aa(lp2876
I0
aa(lp2877
I0
aI32077
aI289
aI368
aI257
aI364
aI300
aI1591
aI842380
aI341609
aa(lp2878
I0
aa(lp2879
I0
aI31155
aI65596
aI2655
aI5239
aI774
aI907
aI116
aI147
aI783420
aa(lp2880
I0
aI121
aI145
aI848814
aI33
aI340763
aa(lp2881
I0
aI79327
aI108
aI784962
aa(lp2882
I0
aI33001
aa(lp2883
I0
aI32373
aI1955
aI37
aI173
aI775478
aa(lp2884
I0
aI974
aI579950
aI175400
aI110361
aI55331
aI1644
aI368
aI425
aI701
aI340
aI3759
aI2808
aI6786
aI103
aI325
aI432114
aa(lp2885
I0
aI32677
aa(lp2886
I0
aI578997
aI253562
aI4319
aI25953
aI57797
aI15083
aa(lp2887
I0
aI78937
aI84316
aI89515
aI16337
aI330602
aI80926
aI620
aI332600
aa(lp2888
I0
aI78597
aI893
aI607
aI921
aI121
aI783549
aI506813
aa(lp2889
I0
aI3937
aI338
aI124
aI742109
aI432368
aI1924
aI209
aI3480
aI17977
aI60969
aa(lp2890
I0
aI1708
aI95886
aI83296
aI22208
aI184
aI133463
aI29636
aI316495
aI20745
aI4097
aI147675
aI175326
aI5224
aa(lp2891
I0
aI49
aI165
aI743351
aI455295
aI486
aa(lp2892
I0
aa(lp2893
I0
aI78240
aI2980
aI1216364
aI14653
aI5247
aI60851
aI303
aa(lp2894
I0
aa(lp2895
I0
aI75911
aI73944
aI756315
aI371347
aa(lp2896
I0
aI678089
aI241944
aI619
aI4588
aI6223
aI334204
aI15016
aa(lp2897
I0
aa(lp2898
I0
aI77471
aI16810
aI55539
aI97405
aI359332
aI5966
aI50805
aI17588
aI9698
aI140628
aa(lp2899
I0
aI77917
aI3165
aI15013
aI261
aI20693
aI71386
aI101999
aI49010
aI28227
aI318628
aa(lp2900
I0
aI205
aI319032
aI337585
aI12222
aI2107
aI3614
aa(lp2901
I0
aI209
aa(lp2902
I0
aI805
aI49
aI788230
aI13855
aI70700
aI361
aI1007
aI15008
aI85302
aI177
aI59465
aI10385
aI2172
aI145484
aI124171
aa(lp2903
I0
aI185
aI594241
aI171991
aI20056
aI428010
aa(lp2904
I0
aI77985
aI391
aI38
aI619105
aI331524
aI521
aI4281
aI254768
aI7937
aI8690
aa(lp2905
I0
aI7634
aI11503
aI51981
aI44
aI114
aI686137
aI526878
aI226
aa(lp2906
I0
aI1624
aa(lp2907
I0
aI76259
aI14196
aI1600
aI84803
aI65733
aI17392
aI1578
aI71591
aI8492
aI403
aa(lp2908
I0
aa(lp2909
I0
aa(lp2910
I0
aI3499
aI845196
aI184
aa(lp2911
I0
aI3055
aI241
aI311111
aI270816
aI1678
aI8107
aI66005
aI2033
aa(lp2912
I0
aI767
aI672191
aI334570
aI5999
aI605
aI3574
aa(lp2913
I0
aI20921
aI111
aI796200
aI576520
aa(lp2914
I0
aI803119
aI8057
aI408559
aa(lp2915
I0
aI346135
aI277014
aI73570
aI10532
aI3671
aa(lp2916
I0
aa(lp2917
I0
aI742
aI122
aI5908
aI714
aI100407
aI361
aI758415
aI529456
aI6291
aa(lp2918
I0
aa(lp2919
I0
aI80114
aI795726
aI18561
aI62242
aa(lp2920
I0
aI20070
aa(lp2921
I0
aa(lp2922
I0
aa(lp2923
I0
aI79062
aI16680
aI623
aa(lp2924
I0
aa(lp2925
I0
aI47
aI2918
aa(lp2926
I0
aI13063
aI795156
aa(lp2927
I0
aI341
aI666254
aI247480
aa(lp2928
I0
aI2443
aI38
aI344887
aI357706
aa(lp2929
I0
aI258
aI180721
aI280
aI437
aI702875
aI509243
aa(lp2930
I0
aI28518
aI89
aI574176
aI255239
aa(lp2931
I0
aI51092
aa(lp2932
I0
aI64122
aI1906
aI415
aI459
aI603272
aI4080
aI1806
aI603
aI6209
aI251799
aI67205
aI1378
aI15318
aI150299
aI166
aI262
aI33
aI1937
aI12798
aI4014
aI21612
aI43094
aI12654
aI25230
aI66361
aI3786
aI4557
aI1027
aa(lp2933
I0
aI101
aI306870
aI342790
aa(lp2934
I0
aa(lp2935
I0
aI96451
aa(lp2936
I0
aI830
aI681
aa(lp2937
I0
aI47493
aI2845
aI2545
aI125
aI87
aI86107
aI62
aI49
aI131
aI175205
aI464976
aI125
aI484595
aI81036
aa(lp2938
I0
aI158
aI355053
aI253905
aI690325
aa(lp2939
I0
aI79522
aI44
aI68
aI259203
aI354461
aI95
aa(lp2940
I0
aI391
aI84672
aI17
aI28532
aa(lp2941
I0
aI392
aI13590
aI323
aI30
aa(lp2942
I0
aI673
aI95898
aI85603
aI11976
aI364
aa(lp2943
I0
aI4266
aI798909
aI508044
aa(lp2944
I0
aI15836
aI5693
aa(lp2945
I0
aI1514
aI1524
aI47
aI57
aI257168
aI1405
aI357952
aI339918
aI9806
aI173495
aI61084
aa(lp2946
I0
aI25
aI335450
aI364254
aa(lp2947
I0
aI972
aI91635
aI4291
aI10380
aI92288
aI691187
aI37
aI60198
aa(lp2948
I0
aI78560
aI28101
aI89624
aI84636
aI172
aa(lp2949
I0
aI74743
aI3324
aI11544
aI8570
aI253
aI592638
aI511300
aa(lp2950
I0
aI136
aI63
aI621029
aI229009
aI364094
aI85620
aI64748
aI18947
aI873
aI2456
aI1388
aa(lp2951
I0
aI797945
aI64471
aa(lp2952
I0
aI20
aI3524
aI344
aI1043
aI43
aI782728
aI75197
aI73
aI816
aa(lp2953
I0
aa(lp2954
I0
aI47887
aI25442
aI83588
aI67095
aI435537
aI499872
aI10662
aI92379
aI3968
aI4252
aI2519
aI12904
aI71
aI58917
aI3441
aa(lp2955
I0
aI88350
aI2003
aI7912
aI850250
aI539
aI164
aI8901
aI280
aI752
aI748
aI4302
aI411
aa(lp2956
I0
aI145
aI124
aI794135
aa(lp2957
I0
aI46238
aI16573
aI136
aI506923
aI194000
aI467
aI1168
aI1229
aI2241
aI69845
aI4016
aI3260
aa(lp2958
I0
aI87181
aI189
aI785286
aa(lp2959
I0
aI71534
aI27656
aI495
aI1560
aI152614
aI446
aI70480
aI343790
aI14595
aI21670
aI138347
aI35041
aI426365
aa(lp2960
I0
aI84813
aI5224
aI83542
aI99742
aa(lp2961
I0
aa(lp2962
I0
aI69291
aI13292
aI1676
aa(lp2963
I0
aI27497
aI90198
aI135679
aI28043
aI242078
aI700656
aa(lp2964
I0
aI86
aI853390
aI88597
aa(lp2965
I0
aI686549
aI517450
aI3088
aI1979
aI703
aI1321
aI80604
aI5805
aa(lp2966
I0
aI401
aI58
aI220
aI2012
aI808
aI44
aI4357
aI1929
aI228
aI5437
aI85070
aI89770
aI2109
aa(lp2967
I0
aI770
aI7601
aI5228
aI52221
aI1040
aI22527
aI5972
aI7066
aI43737
aI1388
aI913
aI942
aI991
aI864
aI98361
aI13302
aI66198
aI258275
aI91542
aI1690
aI1302
aI3136
aa(lp2968
I0
aI68
aI126
aI798624
aa(lp2969
I0
aI638
aI65263
aI12842
aI98310
aI1722
aa(lp2970
I0
aa(lp2971
I0
aI68846
aI791524
aI82942
aa(lp2972
I0
aI77745
aI85604
aI19230
aI72068
aa(lp2973
I0
aI4597
aI15908
aI138
aI45
aI779582
aI142102
aI258386
aa(lp2974
I0
aI450
aI171620
aI402641
aI279758
aI81069
aI11373
aI222
aI680
aI232250
aa(lp2975
I0
aI19361
aI697210
aI507126
aa(lp2976
I0
aI2721
aI71029
aI5541
aI74341
aI97451
aI83489
aI266557
aI79770
aI748
aI16413
aI404
aI137676
aI21396
aI73223
aI258969
aI13465
aa(lp2977
I0
aa(lp2978
I0
aI190
aI848918
aa(lp2979
I0
aI2621
aI72
aI576951
aI262118
aa(lp2980
I0
aI742
aI425
aI579341
aI95556
aI2083
aI1957
aa(lp2981
I0
aI214
aI848550
aI417381
aa(lp2982
I0
aI579
aI360
aI1430
aI134
aI105
aI592
aI64
aI345
aI162055
aI57
aI155612
aI357986
aI19542
aI75776
aI622
aI62841
aI5756
aI95972
aI226731
aI52124
aI158
aI62667
aI68168
aI4018
aa(lp2983
I0
aI612
aI1697
aI1604
aI61
aI576528
aI703350
aI68037
aa(lp2984
I0
aI95
aI744227
aI540319
aa(lp2985
I0
aI4987
aI601
aI84943
aI150724
aa(lp2986
I0
aI80182
aI16076
aI86595
aa(lp2987
I0
aI79648
aI97461
aI82036
aI7457
aI13318
aI91
aI63
aI52
aI255
aI981
aI503784
aI323593
aI150
aI12676
aI166562
aI61
aI376
aI6808
aa(lp2988
I0
aI44
aI4417
aI1722
aI779383
aI147432
aI76070
aa(lp2989
I0
aa(lp2990
I0
aa(lp2991
I0
aa(lp2992
I0
aI103
aI575216
aI173447
aa(lp2993
I0
aI4626
aI330
aI775827
aI569165
aa(lp2994
I0
aI1286
aI506800
aI174689
aa(lp2995
I0
aa(lp2996
I0
aI1147
aI783
aI668323
aI72
aI265764
aa(lp2997
I0
aI516
aI660881
aI596790
aa(lp2998
I0
aI4072
aI67519
aI14753
aI267
aI147
aI155
aI776532
aa(lp2999
I0
aI983
aI71397
aI71570
aI100836
aI81478
aI16591
aI315174
aI155617
aI16269
aI176737
aI170154
aI97681
aI11035
aI341
aa(lp3000
I0
aI28964
aI3015
aa(lp3001
I0
aI64934
aI23023
aI87381
aI132755
aI343414
aI14871
aI21474
aI138357
aI17606
aa(lp3002
I0
aI196
aI310013
aI354370
aa(lp3003
I0
aI63994
aI5532
aI2683
aI815
aI70258
aI97475
aI83540
aI251947
aI91427
aI2534
aI16785
aI138445
aI117798
aI75753
aI171838
aI87471
aI68155
aI3641
aa(lp3004
I0
aI143
aI571532
aI186085
aI3194
aI83
aI601116
aI1839
aa(lp3005
I0
aa(lp3006
I0
aI52
aI55343
aI708516
aI580194
aa(lp3007
I0
aI94
aa(lp3008
I0
aI294
aI65
aI666637
aI338727
aa(lp3009
I0
aI36
aI311380
aI82274
aI14779
aI241
aI125
aI175258
aI276
aa(lp3010
I0
aI5325
aI102
aa(lp3011
I0
aa(lp3012
I0
aI446
aa(lp3013
I0
aI78
aI93
aI796362
aa(lp3014
I0
aI9008
aI30334
aI1492
aa(lp3015
I0
aa(lp3016
I0
aa(lp3017
I0
aI244
aI261
aa(lp3018
I0
aI51
aI728030
aI507166
aa(lp3019
I0
aI200
aI359
aI2889
aI2778
aI1902
aI169
aI793565
aI84981
aa(lp3020
I0
aa(lp3021
I0
aI11147
aI21375
aI495827
aI270628
aa(lp3022
I0
aI643
aI515231
aI171873
aa(lp3023
I0
aI10563
aI3350
aa(lp3024
I0
aI13591
aI1552
aI346
aI511
aI504879
aI13516
aI1989
aI57
aI77804
aI9207
aI3656
aI65715
aI473
aI21142
aI402
aI58647
aI2476
aI2271
aI8545
aI222
aI119
aI357944
aI3827
aI56191
aI100455
aa(lp3025
I0
aa(lp3026
I0
aI139
aI94252
aI84
aI425356
aI884
aI1004
aI344004
aa(lp3027
I0
aI242
aI802403
aa(lp3028
I0
aI7955
aI257540
aI3575
aI6899
aI227
aI39
aI3054
aI9233
aI227656
aI2784
aI999
aI2149
aI17635
aI84134
aI1433
aI3596
aa(lp3029
I0
aI1479
aI45
aI101
aI797130
aa(lp3030
I0
aa(lp3031
I0
aI12505
aI193806
aI49081
aI1057
aI27693
aI56291
aI270046
aI20101
aI1313
aa(lp3032
I0
aI1731
aI1478
aI26584
aI773167
aa(lp3033
I0
aa(lp3034
I0
aI794407
aI99767
aI1007
aa(lp3035
I0
aI603
aI773
aI110
aI360540
aI241476
aI510267
aI1462
aI3639
aI4186
aI771
aI185650
aa(lp3036
I0
aa(lp3037
I0
aa(lp3038
I0
aI797207
aI508485
aa(lp3039
I0
aI9916
aI4828
aI597235
aI256151
aI783
aI4415
aI686
aI1990
aa(lp3040
I0
aI13626
aI967
aI48659
aI10931
aI96
aI695647
aI522391
aa(lp3041
I0
aa(lp3042
I0
aa(lp3043
I0
aI9802
aI173233
aI67839
aI69
aI21144
aa(lp3044
I0
aI780
aI10374
aI62305
aI101879
aI75398
aI23321
aI511
aI317368
aI4604
aI27453
aI92199
aI417
aI53309
aI173910
aI169775
aI100347
aI68948
aa(lp3045
I0
aI99
aI3760
aI158525
aI351601
aI1767
aI12642
aa(lp3046
I0
aI3244
aI179
aI771459
aI86880
aI1205
aI408174
aa(lp3047
I0
aI68478
aI170
aI720488
aI410364
aa(lp3048
I0
aI432
aa(lp3049
I0
aI83710
aI985
aI706022
aa(lp3050
I0
aI7162
aI9419
aa(lp3051
I0
aI4236
aI288
aI188
aI597628
aI243941
aI1225
aI2325
aI5406
aI7273
aI4103
aI132
aI7537
aa(lp3052
I0
aI380
aI779487
aI313804
aa(lp3053
I0
aI537
aI86
aI517016
aI159400
aI95235
aI424811
aI3926
aI14038
aI96
aa(lp3054
I0
aI968
aI777630
aa(lp3055
I0
aI6518
aI774041
aI402820
aa(lp3056
I0
aI8374
aa(lp3057
I0
aI365
aI153
aI507377
aI169228
aI1003
aI15147
aI78728
aI8199
aI27
aI7259
aI470
aI1463
aI407353
aI7569
aI6069
aI9313
aI55888
aI12736
aI565
aI936
aI1001
aI352
aI110
aI2275
aI1089
aI4027
aI17
aI895
aa(lp3058
I0
aI89
aa(lp3059
I0
aI448
aI907
aI12
aI5459
aI84183
aI17231
aI132336
aI7945
aI24831
aI6868
aI242920
aI11239
aI66484
aI2046
aa(lp3060
I0
aa(lp3061
I0
aI236
aI708889
aI506896
aa(lp3062
I0
aI1434
aI58077
aa(lp3063
I0
aa(lp3064
I0
aI755079
aI444552
aI69610
aI831
aa(lp3065
I0
aI12956
aI54549
aI256
aI148
aI721289
aI485588
aa(lp3066
I0
aI177
aI778394
aI483050
aa(lp3067
I0
aI135
aI829
aI431
aI176
aI164831
aI1459
aI803
aI111
aI4872
aI14113
aI45
aI102
aI55127
aI3230
aI333678
aI15046
aI8705
aI506046
aI80700
aI8170
aI1387
aI11428
aI390
aa(lp3068
I0
aI49107
aI102319
aI75479
aI16115
aI3362
aI1809
aI1428
aa(lp3069
I0
aI1458
aI256
aI575252
aI513181
aI4543
aI950
aa(lp3070
I0
aI2445
aI167
aI329735
aI253510
aI242960
aa(lp3071
I0
aI78
aI821
aI52259
aI1487
aI24956
aI1744
aI527
aI2828
aI500661
aa(lp3072
I0
aa(lp3073
I0
aa(lp3074
I0
aI48116
aI102250
aI18976
aI73324
aI499890
aI364601
aI73359
aI189
aa(lp3075
I0
aI782610
aI404578
aa(lp3076
I0
aI49446
aI723316
aa(lp3077
I0
aI610
aa(lp3078
I0
aI51744
aI262
aI195
aI519564
aI146
aI350311
aI199
aI530
aI173327
aa(lp3079
I0
aI168101
aI321517
aI250851
aI35
aI28417
aI62809
aI4027
aI268047
aI6729
aa(lp3080
I0
aa(lp3081
I0
aI14
aI91
aI301
aI775744
aI58992
aa(lp3082
I0
aI45
aI83226
aI50965
aa(lp3083
I0
aa(lp3084
I0
aI3411
aI3882
aI1404
aI7
aI38
aI583
aI3809
aI2919
aI1626
aI2497
aI12126
aI2244
aa(lp3085
I0
aI109
aI760735
aI105190
aa(lp3086
I0
aI1620
aI47878
aI763
aI3345
aI1479
aI98385
aI71941
aI34207
aI246301
aI80499
aI169
aI378
aI175
aI694079
aa(lp3087
I0
aI11492
aI726128
aa(lp3088
I0
aI102534
aI75593
aI17076
aa(lp3089
I0
aI601
aI263
aa(lp3090
I0
aI51826
aI99230
aI67610
aI99829
aI4756
aI1815
aI254692
aI8344
aI1545
aI84707
aI69271
aI68
aa(lp3091
I0
aI171425
aI366279
aI178042
aI11348
aa(lp3092
I0
aa(lp3093
I0
aI47881
aI4719
aI3995
aI717925
aI502984
aa(lp3094
I0
aa(lp3095
I0
aI102643
aI260
aI279
aI711461
aa(lp3096
I0
aI576312
aI2578
aI517355
aI10213
aa(lp3097
I0
aI100714
aI69101
aI31134
aI318769
aI17998
aI11401
aI138591
aI17209
aa(lp3098
I0
aI3501
aI105635
aI227
aI417959
aI497488
aa(lp3099
I0
aI99236
aI170
aI591608
aI451827
aI86
aa(lp3100
I0
aI10565
aa(lp3101
I0
aa(lp3102
I0
aI22006
aI17249
aI171711
aI2784
aI256511
aI785
aI480
aI617
aI69553
aI14752
aI71789
aI68650
aI177236
aI265778
aI23385
aa(lp3103
I0
aI170046
aI541901
aI488963
aa(lp3104
I0
aI639
aI160
aa(lp3105
I0
aI560
aI9446
aI96977
aI83737
aI693716
aa(lp3106
I0
aI882
aI525362
aI343584
aI10657
aI566
aI149223
aa(lp3107
I0
aI39188
aI61882
aa(lp3108
I0
aI12880
aI710450
aa(lp3109
I0
aI579
aI9580
aI17595
aI148
aI12
aI701834
aa(lp3110
I0
aa(lp3111
I0
aI90445
aI80090
aI28467
aI581233
aa(lp3112
I0
aa(lp3113
I0
aI94740
aI531165
aI497928
aa(lp3114
I0
aI9328
aI1538
aI20898
aI154
aI697085
aI318466
aa(lp3115
I0
aI4042
aI10
aI146
aI716775
aI412994
aa(lp3116
I0
aI2009
aI718607
aI51677
aa(lp3117
I0
aI719543
aI503378
aa(lp3118
I0
aI98094
aI73001
aI338640
aI19887
aI71027
aI27979
aI64054
aI173533
aI171253
aa(lp3119
I0
aI98186
aI76948
aI26272
aa(lp3120
I0
aI102927
aI15
aI14353
aI69201
aI9273
aI206
aI842565
aa(lp3121
I0
aI37844
aI74952
aa(lp3122
I0
aI152222
aI13022
aI9277
aa(lp3123
I0
aa(lp3124
I0
aI10333
aI91551
aI333566
aI189777
aI1054
aI1818
aI66841
aI6456
aa(lp3125
I0
aI564459
aI607981
aI3874
aI16891
aa(lp3126
I0
aI102471
aI72870
aI610407
aa(lp3127
I0
aI946
aI8941
aI20895
aI827
aI579
aI54199
aa(lp3128
I0
aI258
aI535128
aI329624
aI2160
aI748
aa(lp3129
I0
aI59
aI6189
aI23116
aI956
aI170
aI571861
aI441064
aa(lp3130
I0
aI251
aI58
aI181
aI690967
aI436
aI674
aI401889
aa(lp3131
I0
aI833
aI208
aI65690
aI350102
aI21488
aI233857
aI91170
aI5735
aI43
aI905
aI259
aI515
aa(lp3132
I0
aI68517
aI644750
aa(lp3133
I0
aI18
aI86171
aI3091
aI47
aI158
aI710134
aI231797
aa(lp3134
I0
aI709218
aI83816
aa(lp3135
I0
aI112937
aa(lp3136
I0
aI5147
aI6049
aI118
aI519702
aI163531
aI356766
aI3243
aI466
aa(lp3137
I0
aI50
aI83
aI2029
aI10879
aI16215
aI643
aI48980
aI12252
aI611927
aI2755
aI1087
aI12148
aI139980
aI170916
aI4610
aI83285
aI15220
aI324
aI12851
aI1504
aI2931
aI2548
aI47533
aI1063
aI6433
aI13755
aa(lp3138
I0
aI47686
aI14552
aI428655
aI339186
aI10075
aI278
aI155517
aI6512
aa(lp3139
I0
aI16341
aI897
aI586
aI696094
aa(lp3140
I0
aI87791
aI366
aI75
aI72
aI588835
aI532045
aa(lp3141
I0
aI528
aI261
aI97094
aI176
aI173402
aI411658
aI428283
aI85668
aI868
aa(lp3142
I0
aI359591
aa(lp3143
I0
aa(lp3144
I0
aI715538
aI407149
aa(lp3145
I0
aa(lp3146
I0
aI673
aI509969
aI77274
aa(lp3147
I0
aI260
aI101
aI642373
aI488593
aI573
aa(lp3148
I0
aI14906
aI309
aI109
aI575276
aI363486
aI69566
aI7597
aa(lp3149
I0
aa(lp3150
I0
aa(lp3151
I0
aI65224
aI2183
aI416865
aa(lp3152
I0
aa(lp3153
I0
aI63019
aI7684
aI68676
aI21753
aI316466
aI20879
aI3659
aI11915
aI137645
aI179721
aI170186
aI100445
aI15511
aa(lp3154
I0
aI6373
aa(lp3155
I0
aI85420
aI6095
aI421
aa(lp3156
I0
aI77482
aa(lp3157
I0
aI86007
aa(lp3158
I0
aa(lp3159
I0
aI1085
aI160620
aI73
aI340326
aI277347
aI1022
aI4797
aI28
aI140
aI65636
aI16327
aI1748
aI139371
aa(lp3160
I0
aI17736
aI419806
aI520712
aa(lp3161
I0
aI345
aI707327
aI344383
aa(lp3162
I0
aa(lp3163
I0
aa(lp3164
I0
aa(lp3165
I0
aa(lp3166
I0
aI497943
aI273921
aI237472
aI555
aI3852
aI542
aI251
aI27810
aI5836
aI151393
aI39
aI4740
aa(lp3167
I0
aI61
aI83595
aI4088
aI9860
aI1935
aI55412
aI17363
aI7655
aI233132
aI2265
aI647
aI18978
aI1900
aI231
aI78900
aa(lp3168
I0
aI83368
aI16322
aI1048
aI54312
aI21819
aI6695
aI232026
aI95482
aI98940
aI63451
aI13801
aI66748
aI28947
aI3063
aI3882
aI121
aI75029
aI151650
aI13657
aI21439
aI65785
aa(lp3169
I0
aI82183
aI4631
aI8218
aI73298
aI16745
aI59635
aI402
aI246058
aI20031
aI5793
aI403
aI6193
aI95600
aI83697
aI82638
aI2498
aI58878
aI169796
aI3456
aa(lp3170
I0
aa(lp3171
I0
aa(lp3172
I0
aI358
aa(lp3173
I0
aa(lp3174
I0
aI79125
aI64
aI259
aI707359
aa(lp3175
I0
aI82
aI126
aI122
aI434
aI616038
aI60
aI569964
aa(lp3176
I0
aI277
aI707259
aI260974
aa(lp3177
I0
aI96
aI665392
aI525712
aI118
aI2671
aa(lp3178
I0
aI1620
aI229
aI409
aI227
aI762311
aa(lp3179
I0
aI6747
aI519
aI482751
aI260804
aI2499
aI3814
aI2797
aI41
aI1310
aI1487
aa(lp3180
I0
aa(lp3181
I0
aI3391
aI204
aa(lp3182
I0
aI384
aI109
aI696655
aI49980
aI437437
aI7552
aa(lp3183
I0
aI158
aI399746
aI16546
aI590455
aa(lp3184
I0
aI56959
aI16528
aI9638
aI73341
aa(lp3185
I0
aI15
aI70
aI401
aI609986
aa(lp3186
I0
aI251
aI501498
aI505011
aa(lp3187
I0
aa(lp3188
I0
aa(lp3189
I0
aI711237
aa(lp3190
I0
aa(lp3191
I0
aI75277
aI360
aI76138
aI348688
aI174424
aI3359
aI4434
aI423533
aI933
aa(lp3192
I0
aI82510
aI14863
aI315028
aI98471
aI589469
aa(lp3193
I0
aa(lp3194
I0
aI317
aI145
aI499402
aI252318
aI409
aa(lp3195
I0
aI6090
aI13
aI61
aI758412
aa(lp3196
I0
aI62997
aI440772
aI257852
aI2932
aI231869
aI115
aI5427
aI19107
aI3251
aI677
aa(lp3197
I0
aI14
aI41
aI424
aI690666
aI66
aa(lp3198
I0
aI358
aa(lp3199
I0
aI1317
aa(lp3200
I0
aI62748
aI28437
aI316198
aI95577
aI597202
aa(lp3201
I0
aI7827
aI345
aI756211
aa(lp3202
I0
aI3353
aI83
aI93
aI762962
aa(lp3203
I0
aI38688
aa(lp3204
I0
aa(lp3205
I0
aa(lp3206
I0
aa(lp3207
I0
aa(lp3208
I0
aa(lp3209
I0
aI69867
aI1403
aI546
aI357
aI349548
aa(lp3210
I0
aa(lp3211
I0
aI48631
aI622762
aI442330
aa(lp3212
I0
aI60199
aI16800
aI13199
aI569743
aa(lp3213
I0
aI23594
aI705573
aa(lp3214
I0
aI10968
aI57
aI333076
aI151363
aI457833
aI68951
aa(lp3215
I0
aI79263
aI276
aI89
aI1855
aI605680
aa(lp3216
I0
aa(lp3217
I0
aI39289
aI750493
aa(lp3218
I0
aa.